
AmpLedMod.elf:     file format elf32-avr

Sections:
Idx Name          Size      VMA       LMA       File off  Algn
  0 .data         00000058  00800100  00002a18  00002aac  2**0
                  CONTENTS, ALLOC, LOAD, DATA
  1 .text         00002a18  00000000  00000000  00000094  2**1
                  CONTENTS, ALLOC, LOAD, READONLY, CODE
  2 .bss          00000294  00800158  00800158  00002b04  2**0
                  ALLOC
  3 .comment      00000030  00000000  00000000  00002b04  2**0
                  CONTENTS, READONLY
  4 .note.gnu.avr.deviceinfo 0000003c  00000000  00000000  00002b34  2**2
                  CONTENTS, READONLY
  5 .debug_aranges 00000040  00000000  00000000  00002b70  2**3
                  CONTENTS, READONLY, DEBUGGING
  6 .debug_info   0000074a  00000000  00000000  00002bb0  2**0
                  CONTENTS, READONLY, DEBUGGING
  7 .debug_abbrev 000005ca  00000000  00000000  000032fa  2**0
                  CONTENTS, READONLY, DEBUGGING
  8 .debug_line   0000024b  00000000  00000000  000038c4  2**0
                  CONTENTS, READONLY, DEBUGGING
  9 .debug_str    00000208  00000000  00000000  00003b0f  2**0
                  CONTENTS, READONLY, DEBUGGING

Disassembly of section .text:

00000000 <__vectors>:
       0:	0c 94 4a 00 	jmp	0x94	; 0x94 <__ctors_end>
       4:	0c 94 67 00 	jmp	0xce	; 0xce <__bad_interrupt>
       8:	0c 94 67 00 	jmp	0xce	; 0xce <__bad_interrupt>
       c:	0c 94 67 00 	jmp	0xce	; 0xce <__bad_interrupt>
      10:	0c 94 67 00 	jmp	0xce	; 0xce <__bad_interrupt>
      14:	0c 94 67 00 	jmp	0xce	; 0xce <__bad_interrupt>
      18:	0c 94 67 00 	jmp	0xce	; 0xce <__bad_interrupt>
      1c:	0c 94 67 00 	jmp	0xce	; 0xce <__bad_interrupt>
      20:	0c 94 67 00 	jmp	0xce	; 0xce <__bad_interrupt>
      24:	0c 94 67 00 	jmp	0xce	; 0xce <__bad_interrupt>
      28:	0c 94 67 00 	jmp	0xce	; 0xce <__bad_interrupt>
      2c:	0c 94 67 00 	jmp	0xce	; 0xce <__bad_interrupt>
      30:	0c 94 67 00 	jmp	0xce	; 0xce <__bad_interrupt>
      34:	0c 94 67 00 	jmp	0xce	; 0xce <__bad_interrupt>
      38:	0c 94 67 00 	jmp	0xce	; 0xce <__bad_interrupt>
      3c:	0c 94 67 00 	jmp	0xce	; 0xce <__bad_interrupt>
      40:	0c 94 67 00 	jmp	0xce	; 0xce <__bad_interrupt>
      44:	0c 94 67 00 	jmp	0xce	; 0xce <__bad_interrupt>
      48:	0c 94 f2 00 	jmp	0x1e4	; 0x1e4 <__vector_18>
      4c:	0c 94 67 00 	jmp	0xce	; 0xce <__bad_interrupt>
      50:	0c 94 67 00 	jmp	0xce	; 0xce <__bad_interrupt>
      54:	0c 94 67 00 	jmp	0xce	; 0xce <__bad_interrupt>
      58:	0c 94 67 00 	jmp	0xce	; 0xce <__bad_interrupt>
      5c:	0c 94 67 00 	jmp	0xce	; 0xce <__bad_interrupt>
      60:	0c 94 67 00 	jmp	0xce	; 0xce <__bad_interrupt>
      64:	0c 94 67 00 	jmp	0xce	; 0xce <__bad_interrupt>
      68:	43 02       	muls	r20, r19
      6a:	05 02       	muls	r16, r21
      6c:	fc 01       	movw	r30, r24
      6e:	f4 01       	movw	r30, r8
      70:	eb 01       	movw	r28, r22
      72:	e2 01       	movw	r28, r4
      74:	4c 02       	muls	r20, r28
      76:	05 a8       	ldd	r0, Z+53	; 0x35
      78:	4c cd       	rjmp	.-1384   	; 0xfffffb12 <__eeprom_end+0xff7efb12>
      7a:	b2 d4       	rcall	.+2404   	; 0x9e0 <seqPingPongFunc+0x49a>
      7c:	4e b9       	out	0x0e, r20	; 14
      7e:	38 36       	cpi	r19, 0x68	; 104
      80:	a9 02       	muls	r26, r25
      82:	0c 50       	subi	r16, 0x0C	; 12
      84:	b9 91       	ld	r27, Y+
      86:	86 88       	ldd	r8, Z+22	; 0x16
      88:	08 3c       	cpi	r16, 0xC8	; 200
      8a:	a6 aa       	std	Z+54, r10	; 0x36
      8c:	aa 2a       	or	r10, r26
      8e:	be 00       	.word	0x00be	; ????
      90:	00 00       	nop
      92:	80 3f       	cpi	r24, 0xF0	; 240

00000094 <__ctors_end>:
      94:	11 24       	eor	r1, r1
      96:	1f be       	out	0x3f, r1	; 63
      98:	cf ef       	ldi	r28, 0xFF	; 255
      9a:	d4 e0       	ldi	r29, 0x04	; 4
      9c:	de bf       	out	0x3e, r29	; 62
      9e:	cd bf       	out	0x3d, r28	; 61

000000a0 <__do_copy_data>:
      a0:	11 e0       	ldi	r17, 0x01	; 1
      a2:	a0 e0       	ldi	r26, 0x00	; 0
      a4:	b1 e0       	ldi	r27, 0x01	; 1
      a6:	e8 e1       	ldi	r30, 0x18	; 24
      a8:	fa e2       	ldi	r31, 0x2A	; 42
      aa:	02 c0       	rjmp	.+4      	; 0xb0 <__do_copy_data+0x10>
      ac:	05 90       	lpm	r0, Z+
      ae:	0d 92       	st	X+, r0
      b0:	a8 35       	cpi	r26, 0x58	; 88
      b2:	b1 07       	cpc	r27, r17
      b4:	d9 f7       	brne	.-10     	; 0xac <__do_copy_data+0xc>

000000b6 <__do_clear_bss>:
      b6:	23 e0       	ldi	r18, 0x03	; 3
      b8:	a8 e5       	ldi	r26, 0x58	; 88
      ba:	b1 e0       	ldi	r27, 0x01	; 1
      bc:	01 c0       	rjmp	.+2      	; 0xc0 <.do_clear_bss_start>

000000be <.do_clear_bss_loop>:
      be:	1d 92       	st	X+, r1

000000c0 <.do_clear_bss_start>:
      c0:	ac 3e       	cpi	r26, 0xEC	; 236
      c2:	b2 07       	cpc	r27, r18
      c4:	e1 f7       	brne	.-8      	; 0xbe <.do_clear_bss_loop>
      c6:	0e 94 35 01 	call	0x26a	; 0x26a <main>
      ca:	0c 94 0a 15 	jmp	0x2a14	; 0x2a14 <_exit>

000000ce <__bad_interrupt>:
      ce:	0c 94 00 00 	jmp	0	; 0x0 <__vectors>

000000d2 <bluetoothGetFrame>:
      d2:	40 91 59 01 	lds	r20, 0x0159	; 0x800159 <ringBufferWritePos>
      d6:	20 91 5a 01 	lds	r18, 0x015A	; 0x80015a <ringBufferReadPos>
      da:	50 e0       	ldi	r21, 0x00	; 0
      dc:	42 1b       	sub	r20, r18
      de:	51 09       	sbc	r21, r1
      e0:	57 fd       	sbrc	r21, 7
      e2:	73 c0       	rjmp	.+230    	; 0x1ca <bluetoothGetFrame+0xf8>
      e4:	42 30       	cpi	r20, 0x02	; 2
      e6:	51 05       	cpc	r21, r1
      e8:	0c f4       	brge	.+2      	; 0xec <bluetoothGetFrame+0x1a>
      ea:	5f c0       	rjmp	.+190    	; 0x1aa <bluetoothGetFrame+0xd8>
      ec:	e0 91 5a 01 	lds	r30, 0x015A	; 0x80015a <ringBufferReadPos>
      f0:	ef 77       	andi	r30, 0x7F	; 127
      f2:	f0 e0       	ldi	r31, 0x00	; 0
      f4:	e5 5a       	subi	r30, 0xA5	; 165
      f6:	fe 4f       	sbci	r31, 0xFE	; 254
      f8:	20 81       	ld	r18, Z
      fa:	2f 3f       	cpi	r18, 0xFF	; 255
      fc:	09 f4       	brne	.+2      	; 0x100 <bluetoothGetFrame+0x2e>
      fe:	57 c0       	rjmp	.+174    	; 0x1ae <bluetoothGetFrame+0xdc>
     100:	20 91 5a 01 	lds	r18, 0x015A	; 0x80015a <ringBufferReadPos>
     104:	30 e0       	ldi	r19, 0x00	; 0
     106:	2f 5f       	subi	r18, 0xFF	; 255
     108:	3f 4f       	sbci	r19, 0xFF	; 255
     10a:	2f 77       	andi	r18, 0x7F	; 127
     10c:	33 27       	eor	r19, r19
     10e:	20 93 5a 01 	sts	0x015A, r18	; 0x80015a <ringBufferReadPos>
     112:	41 50       	subi	r20, 0x01	; 1
     114:	51 09       	sbc	r21, r1
     116:	41 30       	cpi	r20, 0x01	; 1
     118:	51 05       	cpc	r21, r1
     11a:	41 f7       	brne	.-48     	; 0xec <bluetoothGetFrame+0x1a>
     11c:	e0 91 5a 01 	lds	r30, 0x015A	; 0x80015a <ringBufferReadPos>
     120:	f0 e0       	ldi	r31, 0x00	; 0
     122:	e4 5a       	subi	r30, 0xA4	; 164
     124:	fe 4f       	sbci	r31, 0xFE	; 254
     126:	20 81       	ld	r18, Z
     128:	42 2f       	mov	r20, r18
     12a:	50 e0       	ldi	r21, 0x00	; 0
     12c:	e0 91 5a 01 	lds	r30, 0x015A	; 0x80015a <ringBufferReadPos>
     130:	f0 e0       	ldi	r31, 0x00	; 0
     132:	31 96       	adiw	r30, 0x01	; 1
     134:	ef 77       	andi	r30, 0x7F	; 127
     136:	ff 27       	eor	r31, r31
     138:	e0 93 5a 01 	sts	0x015A, r30	; 0x80015a <ringBufferReadPos>
     13c:	e0 91 5a 01 	lds	r30, 0x015A	; 0x80015a <ringBufferReadPos>
     140:	f0 e0       	ldi	r31, 0x00	; 0
     142:	31 96       	adiw	r30, 0x01	; 1
     144:	ef 77       	andi	r30, 0x7F	; 127
     146:	ff 27       	eor	r31, r31
     148:	e0 93 5a 01 	sts	0x015A, r30	; 0x80015a <ringBufferReadPos>
     14c:	70 e0       	ldi	r23, 0x00	; 0
     14e:	64 17       	cp	r22, r20
     150:	75 07       	cpc	r23, r21
     152:	5c f1       	brlt	.+86     	; 0x1aa <bluetoothGetFrame+0xd8>
     154:	41 15       	cp	r20, r1
     156:	51 05       	cpc	r21, r1
     158:	b9 f0       	breq	.+46     	; 0x188 <bluetoothGetFrame+0xb6>
     15a:	dc 01       	movw	r26, r24
     15c:	48 0f       	add	r20, r24
     15e:	59 1f       	adc	r21, r25
     160:	e0 91 5a 01 	lds	r30, 0x015A	; 0x80015a <ringBufferReadPos>
     164:	ef 77       	andi	r30, 0x7F	; 127
     166:	f0 e0       	ldi	r31, 0x00	; 0
     168:	e5 5a       	subi	r30, 0xA5	; 165
     16a:	fe 4f       	sbci	r31, 0xFE	; 254
     16c:	80 81       	ld	r24, Z
     16e:	28 0f       	add	r18, r24
     170:	8d 93       	st	X+, r24
     172:	80 91 5a 01 	lds	r24, 0x015A	; 0x80015a <ringBufferReadPos>
     176:	90 e0       	ldi	r25, 0x00	; 0
     178:	01 96       	adiw	r24, 0x01	; 1
     17a:	8f 77       	andi	r24, 0x7F	; 127
     17c:	99 27       	eor	r25, r25
     17e:	80 93 5a 01 	sts	0x015A, r24	; 0x80015a <ringBufferReadPos>
     182:	4a 17       	cp	r20, r26
     184:	5b 07       	cpc	r21, r27
     186:	61 f7       	brne	.-40     	; 0x160 <bluetoothGetFrame+0x8e>
     188:	e0 91 5a 01 	lds	r30, 0x015A	; 0x80015a <ringBufferReadPos>
     18c:	ef 77       	andi	r30, 0x7F	; 127
     18e:	f0 e0       	ldi	r31, 0x00	; 0
     190:	e5 5a       	subi	r30, 0xA5	; 165
     192:	fe 4f       	sbci	r31, 0xFE	; 254
     194:	80 81       	ld	r24, Z
     196:	28 17       	cp	r18, r24
     198:	d9 f0       	breq	.+54     	; 0x1d0 <bluetoothGetFrame+0xfe>
     19a:	80 91 5a 01 	lds	r24, 0x015A	; 0x80015a <ringBufferReadPos>
     19e:	90 e0       	ldi	r25, 0x00	; 0
     1a0:	01 96       	adiw	r24, 0x01	; 1
     1a2:	8f 77       	andi	r24, 0x7F	; 127
     1a4:	99 27       	eor	r25, r25
     1a6:	80 93 5a 01 	sts	0x015A, r24	; 0x80015a <ringBufferReadPos>
     1aa:	80 e0       	ldi	r24, 0x00	; 0
     1ac:	08 95       	ret
     1ae:	e0 91 5a 01 	lds	r30, 0x015A	; 0x80015a <ringBufferReadPos>
     1b2:	f0 e0       	ldi	r31, 0x00	; 0
     1b4:	e4 5a       	subi	r30, 0xA4	; 164
     1b6:	fe 4f       	sbci	r31, 0xFE	; 254
     1b8:	20 81       	ld	r18, Z
     1ba:	41 50       	subi	r20, 0x01	; 1
     1bc:	51 09       	sbc	r21, r1
     1be:	30 e0       	ldi	r19, 0x00	; 0
     1c0:	24 17       	cp	r18, r20
     1c2:	35 07       	cpc	r19, r21
     1c4:	0c f4       	brge	.+2      	; 0x1c8 <bluetoothGetFrame+0xf6>
     1c6:	aa cf       	rjmp	.-172    	; 0x11c <bluetoothGetFrame+0x4a>
     1c8:	f0 cf       	rjmp	.-32     	; 0x1aa <bluetoothGetFrame+0xd8>
     1ca:	40 58       	subi	r20, 0x80	; 128
     1cc:	5f 4f       	sbci	r21, 0xFF	; 255
     1ce:	8a cf       	rjmp	.-236    	; 0xe4 <bluetoothGetFrame+0x12>
     1d0:	80 91 5a 01 	lds	r24, 0x015A	; 0x80015a <ringBufferReadPos>
     1d4:	90 e0       	ldi	r25, 0x00	; 0
     1d6:	01 96       	adiw	r24, 0x01	; 1
     1d8:	8f 77       	andi	r24, 0x7F	; 127
     1da:	99 27       	eor	r25, r25
     1dc:	80 93 5a 01 	sts	0x015A, r24	; 0x80015a <ringBufferReadPos>
     1e0:	81 e0       	ldi	r24, 0x01	; 1
     1e2:	08 95       	ret

000001e4 <__vector_18>:
     1e4:	1f 92       	push	r1
     1e6:	0f 92       	push	r0
     1e8:	0f b6       	in	r0, 0x3f	; 63
     1ea:	0f 92       	push	r0
     1ec:	11 24       	eor	r1, r1
     1ee:	8f 93       	push	r24
     1f0:	9f 93       	push	r25
     1f2:	ef 93       	push	r30
     1f4:	ff 93       	push	r31
     1f6:	80 91 59 01 	lds	r24, 0x0159	; 0x800159 <ringBufferWritePos>
     1fa:	90 e0       	ldi	r25, 0x00	; 0
     1fc:	01 96       	adiw	r24, 0x01	; 1
     1fe:	8f 77       	andi	r24, 0x7F	; 127
     200:	99 27       	eor	r25, r25
     202:	80 93 58 01 	sts	0x0158, r24	; 0x800158 <__data_end>
     206:	90 91 58 01 	lds	r25, 0x0158	; 0x800158 <__data_end>
     20a:	80 91 5a 01 	lds	r24, 0x015A	; 0x80015a <ringBufferReadPos>
     20e:	98 17       	cp	r25, r24
     210:	61 f0       	breq	.+24     	; 0x22a <__vector_18+0x46>
     212:	e0 91 59 01 	lds	r30, 0x0159	; 0x800159 <ringBufferWritePos>
     216:	f0 e0       	ldi	r31, 0x00	; 0
     218:	80 91 c6 00 	lds	r24, 0x00C6	; 0x8000c6 <__TEXT_REGION_LENGTH__+0x7e00c6>
     21c:	e5 5a       	subi	r30, 0xA5	; 165
     21e:	fe 4f       	sbci	r31, 0xFE	; 254
     220:	80 83       	st	Z, r24
     222:	80 91 58 01 	lds	r24, 0x0158	; 0x800158 <__data_end>
     226:	80 93 59 01 	sts	0x0159, r24	; 0x800159 <ringBufferWritePos>
     22a:	ff 91       	pop	r31
     22c:	ef 91       	pop	r30
     22e:	9f 91       	pop	r25
     230:	8f 91       	pop	r24
     232:	0f 90       	pop	r0
     234:	0f be       	out	0x3f, r0	; 63
     236:	0f 90       	pop	r0
     238:	1f 90       	pop	r1
     23a:	18 95       	reti

0000023c <bluetoothInit>:
     23c:	9c 01       	movw	r18, r24
     23e:	40 e0       	ldi	r20, 0x00	; 0
     240:	50 e0       	ldi	r21, 0x00	; 0
     242:	60 e6       	ldi	r22, 0x60	; 96
     244:	73 ee       	ldi	r23, 0xE3	; 227
     246:	86 e1       	ldi	r24, 0x16	; 22
     248:	90 e0       	ldi	r25, 0x00	; 0
     24a:	0e 94 99 14 	call	0x2932	; 0x2932 <__divmodsi4>
     24e:	21 50       	subi	r18, 0x01	; 1
     250:	31 09       	sbc	r19, r1
     252:	30 93 c5 00 	sts	0x00C5, r19	; 0x8000c5 <__TEXT_REGION_LENGTH__+0x7e00c5>
     256:	20 93 c4 00 	sts	0x00C4, r18	; 0x8000c4 <__TEXT_REGION_LENGTH__+0x7e00c4>
     25a:	88 e9       	ldi	r24, 0x98	; 152
     25c:	80 93 c1 00 	sts	0x00C1, r24	; 0x8000c1 <__TEXT_REGION_LENGTH__+0x7e00c1>
     260:	86 e0       	ldi	r24, 0x06	; 6
     262:	80 93 c2 00 	sts	0x00C2, r24	; 0x8000c2 <__TEXT_REGION_LENGTH__+0x7e00c2>
     266:	78 94       	sei
     268:	08 95       	ret

0000026a <main>:
     26a:	cf 93       	push	r28
     26c:	df 93       	push	r29
     26e:	cd b7       	in	r28, 0x3d	; 61
     270:	de b7       	in	r29, 0x3e	; 62
     272:	e2 97       	sbiw	r28, 0x32	; 50
     274:	0f b6       	in	r0, 0x3f	; 63
     276:	f8 94       	cli
     278:	de bf       	out	0x3e, r29	; 62
     27a:	0f be       	out	0x3f, r0	; 63
     27c:	cd bf       	out	0x3d, r28	; 61
     27e:	eb ed       	ldi	r30, 0xDB	; 219
     280:	f1 e0       	ldi	r31, 0x01	; 1
     282:	80 ee       	ldi	r24, 0xE0	; 224
     284:	91 e0       	ldi	r25, 0x01	; 1
     286:	df 01       	movw	r26, r30
     288:	9c 01       	movw	r18, r24
     28a:	1d 92       	st	X+, r1
     28c:	21 50       	subi	r18, 0x01	; 1
     28e:	30 40       	sbci	r19, 0x00	; 0
     290:	e1 f7       	brne	.-8      	; 0x28a <main+0x20>
     292:	80 e0       	ldi	r24, 0x00	; 0
     294:	96 e9       	ldi	r25, 0x96	; 150
     296:	0e 94 1e 01 	call	0x23c	; 0x23c <bluetoothInit>
     29a:	0e 94 75 11 	call	0x22ea	; 0x22ea <wsInit>
     29e:	80 e0       	ldi	r24, 0x00	; 0
     2a0:	90 e0       	ldi	r25, 0x00	; 0
     2a2:	0e 94 f4 14 	call	0x29e8	; 0x29e8 <eeprom_read_byte>
     2a6:	8a 30       	cpi	r24, 0x0A	; 10
     2a8:	08 f4       	brcc	.+2      	; 0x2ac <main+0x42>
     2aa:	4a c1       	rjmp	.+660    	; 0x540 <__stack+0x41>
     2ac:	81 e0       	ldi	r24, 0x01	; 1
     2ae:	90 e0       	ldi	r25, 0x00	; 0
     2b0:	0e 94 f4 14 	call	0x29e8	; 0x29e8 <eeprom_read_byte>
     2b4:	9f ef       	ldi	r25, 0xFF	; 255
     2b6:	98 0f       	add	r25, r24
     2b8:	98 37       	cpi	r25, 0x78	; 120
     2ba:	10 f4       	brcc	.+4      	; 0x2c0 <main+0x56>
     2bc:	80 93 00 01 	sts	0x0100, r24	; 0x800100 <__data_start>
     2c0:	82 e0       	ldi	r24, 0x02	; 2
     2c2:	90 e0       	ldi	r25, 0x00	; 0
     2c4:	0e 94 f4 14 	call	0x29e8	; 0x29e8 <eeprom_read_byte>
     2c8:	85 36       	cpi	r24, 0x65	; 101
     2ca:	08 f4       	brcc	.+2      	; 0x2ce <main+0x64>
     2cc:	36 c1       	rjmp	.+620    	; 0x53a <__stack+0x3b>
     2ce:	83 e0       	ldi	r24, 0x03	; 3
     2d0:	90 e0       	ldi	r25, 0x00	; 0
     2d2:	0e 94 f4 14 	call	0x29e8	; 0x29e8 <eeprom_read_byte>
     2d6:	85 36       	cpi	r24, 0x65	; 101
     2d8:	08 f4       	brcc	.+2      	; 0x2dc <main+0x72>
     2da:	2c c1       	rjmp	.+600    	; 0x534 <__stack+0x35>
     2dc:	84 e0       	ldi	r24, 0x04	; 4
     2de:	90 e0       	ldi	r25, 0x00	; 0
     2e0:	0e 94 f4 14 	call	0x29e8	; 0x29e8 <eeprom_read_byte>
     2e4:	85 31       	cpi	r24, 0x15	; 21
     2e6:	08 f4       	brcc	.+2      	; 0x2ea <main+0x80>
     2e8:	22 c1       	rjmp	.+580    	; 0x52e <__stack+0x2f>
     2ea:	85 e0       	ldi	r24, 0x05	; 5
     2ec:	90 e0       	ldi	r25, 0x00	; 0
     2ee:	0e 94 f4 14 	call	0x29e8	; 0x29e8 <eeprom_read_byte>
     2f2:	08 2f       	mov	r16, r24
     2f4:	8f ef       	ldi	r24, 0xFF	; 255
     2f6:	80 0f       	add	r24, r16
     2f8:	80 31       	cpi	r24, 0x10	; 16
     2fa:	08 f4       	brcc	.+2      	; 0x2fe <main+0x94>
     2fc:	f2 c0       	rjmp	.+484    	; 0x4e2 <__LOCK_REGION_LENGTH__+0xe2>
     2fe:	20 91 00 01 	lds	r18, 0x0100	; 0x800100 <__data_start>
     302:	30 e0       	ldi	r19, 0x00	; 0
     304:	21 15       	cp	r18, r1
     306:	31 05       	cpc	r19, r1
     308:	21 f1       	breq	.+72     	; 0x352 <main+0xe8>
     30a:	eb ed       	ldi	r30, 0xDB	; 219
     30c:	f1 e0       	ldi	r31, 0x01	; 1
     30e:	00 e0       	ldi	r16, 0x00	; 0
     310:	10 e0       	ldi	r17, 0x00	; 0
     312:	93 e0       	ldi	r25, 0x03	; 3
     314:	e9 2e       	mov	r14, r25
     316:	f1 2c       	mov	r15, r1
     318:	4f ef       	ldi	r20, 0xFF	; 255
     31a:	09 c0       	rjmp	.+18     	; 0x32e <main+0xc4>
     31c:	10 82       	st	Z, r1
     31e:	12 82       	std	Z+2, r1	; 0x02
     320:	41 83       	std	Z+1, r20	; 0x01
     322:	0f 5f       	subi	r16, 0xFF	; 255
     324:	1f 4f       	sbci	r17, 0xFF	; 255
     326:	34 96       	adiw	r30, 0x04	; 4
     328:	02 17       	cp	r16, r18
     32a:	13 07       	cpc	r17, r19
     32c:	94 f4       	brge	.+36     	; 0x352 <main+0xe8>
     32e:	c8 01       	movw	r24, r16
     330:	b7 01       	movw	r22, r14
     332:	0e 94 85 14 	call	0x290a	; 0x290a <__divmodhi4>
     336:	00 97       	sbiw	r24, 0x00	; 0
     338:	89 f3       	breq	.-30     	; 0x31c <main+0xb2>
     33a:	01 97       	sbiw	r24, 0x01	; 1
     33c:	09 f4       	brne	.+2      	; 0x340 <main+0xd6>
     33e:	cd c0       	rjmp	.+410    	; 0x4da <__LOCK_REGION_LENGTH__+0xda>
     340:	12 82       	std	Z+2, r1	; 0x02
     342:	11 82       	std	Z+1, r1	; 0x01
     344:	40 83       	st	Z, r20
     346:	0f 5f       	subi	r16, 0xFF	; 255
     348:	1f 4f       	sbci	r17, 0xFF	; 255
     34a:	34 96       	adiw	r30, 0x04	; 4
     34c:	02 17       	cp	r16, r18
     34e:	13 07       	cpc	r17, r19
     350:	74 f3       	brlt	.-36     	; 0x32e <main+0xc4>
     352:	de 01       	movw	r26, r28
     354:	11 96       	adiw	r26, 0x01	; 1
     356:	7d 01       	movw	r14, r26
     358:	84 e0       	ldi	r24, 0x04	; 4
     35a:	90 e0       	ldi	r25, 0x00	; 0
     35c:	4c 01       	movw	r8, r24
     35e:	8a 1a       	sub	r8, r26
     360:	9b 0a       	sbc	r9, r27
     362:	85 e0       	ldi	r24, 0x05	; 5
     364:	90 e0       	ldi	r25, 0x00	; 0
     366:	5c 01       	movw	r10, r24
     368:	aa 1a       	sub	r10, r26
     36a:	bb 0a       	sbc	r11, r27
     36c:	86 e0       	ldi	r24, 0x06	; 6
     36e:	90 e0       	ldi	r25, 0x00	; 0
     370:	3c 01       	movw	r6, r24
     372:	6a 1a       	sub	r6, r26
     374:	7b 0a       	sbc	r7, r27
     376:	09 c0       	rjmp	.+18     	; 0x38a <main+0x120>
     378:	eb e2       	ldi	r30, 0x2B	; 43
     37a:	f1 e0       	ldi	r31, 0x01	; 1
     37c:	31 97       	sbiw	r30, 0x01	; 1
     37e:	f1 f7       	brne	.-4      	; 0x37c <main+0x112>
     380:	00 c0       	rjmp	.+0      	; 0x382 <main+0x118>
     382:	00 00       	nop
     384:	20 91 00 01 	lds	r18, 0x0100	; 0x800100 <__data_start>
     388:	30 e0       	ldi	r19, 0x00	; 0
     38a:	b9 01       	movw	r22, r18
     38c:	8b ed       	ldi	r24, 0xDB	; 219
     38e:	91 e0       	ldi	r25, 0x01	; 1
     390:	0e 94 77 11 	call	0x22ee	; 0x22ee <wsSend>
     394:	60 91 00 01 	lds	r22, 0x0100	; 0x800100 <__data_start>
     398:	70 e0       	ldi	r23, 0x00	; 0
     39a:	8b ed       	ldi	r24, 0xDB	; 219
     39c:	91 e0       	ldi	r25, 0x01	; 1
     39e:	0e 94 4e 11 	call	0x229c	; 0x229c <seqUpdate>
     3a2:	62 e3       	ldi	r22, 0x32	; 50
     3a4:	c7 01       	movw	r24, r14
     3a6:	0e 94 69 00 	call	0xd2	; 0xd2 <bluetoothGetFrame>
     3aa:	88 23       	and	r24, r24
     3ac:	29 f3       	breq	.-54     	; 0x378 <main+0x10e>
     3ae:	e9 81       	ldd	r30, Y+1	; 0x01
     3b0:	8e 2f       	mov	r24, r30
     3b2:	90 e0       	ldi	r25, 0x00	; 0
     3b4:	87 30       	cpi	r24, 0x07	; 7
     3b6:	91 05       	cpc	r25, r1
     3b8:	f8 f6       	brcc	.-66     	; 0x378 <main+0x10e>
     3ba:	fc 01       	movw	r30, r24
     3bc:	ec 5c       	subi	r30, 0xCC	; 204
     3be:	ff 4f       	sbci	r31, 0xFF	; 255
     3c0:	0c 94 b8 14 	jmp	0x2970	; 0x2970 <__tablejump2__>
     3c4:	8a 81       	ldd	r24, Y+2	; 0x02
     3c6:	0e 94 4b 11 	call	0x2296	; 0x2296 <seqSetSize>
     3ca:	6a 81       	ldd	r22, Y+2	; 0x02
     3cc:	84 e0       	ldi	r24, 0x04	; 4
     3ce:	90 e0       	ldi	r25, 0x00	; 0
     3d0:	0e 94 fc 14 	call	0x29f8	; 0x29f8 <eeprom_write_byte>
     3d4:	d1 cf       	rjmp	.-94     	; 0x378 <main+0x10e>
     3d6:	8a 81       	ldd	r24, Y+2	; 0x02
     3d8:	0e 94 42 11 	call	0x2284	; 0x2284 <seqSetSoftness>
     3dc:	6a 81       	ldd	r22, Y+2	; 0x02
     3de:	83 e0       	ldi	r24, 0x03	; 3
     3e0:	90 e0       	ldi	r25, 0x00	; 0
     3e2:	0e 94 fc 14 	call	0x29f8	; 0x29f8 <eeprom_write_byte>
     3e6:	c8 cf       	rjmp	.-112    	; 0x378 <main+0x10e>
     3e8:	6a 81       	ldd	r22, Y+2	; 0x02
     3ea:	60 93 00 01 	sts	0x0100, r22	; 0x800100 <__data_start>
     3ee:	81 e0       	ldi	r24, 0x01	; 1
     3f0:	90 e0       	ldi	r25, 0x00	; 0
     3f2:	0e 94 fc 14 	call	0x29f8	; 0x29f8 <eeprom_write_byte>
     3f6:	c0 cf       	rjmp	.-128    	; 0x378 <main+0x10e>
     3f8:	8a 81       	ldd	r24, Y+2	; 0x02
     3fa:	0e 94 39 11 	call	0x2272	; 0x2272 <seqSetSpeed>
     3fe:	6a 81       	ldd	r22, Y+2	; 0x02
     400:	82 e0       	ldi	r24, 0x02	; 2
     402:	90 e0       	ldi	r25, 0x00	; 0
     404:	0e 94 fc 14 	call	0x29f8	; 0x29f8 <eeprom_write_byte>
     408:	b7 cf       	rjmp	.-146    	; 0x378 <main+0x10e>
     40a:	8a 81       	ldd	r24, Y+2	; 0x02
     40c:	81 31       	cpi	r24, 0x11	; 17
     40e:	08 f0       	brcs	.+2      	; 0x412 <__LOCK_REGION_LENGTH__+0x12>
     410:	b3 cf       	rjmp	.-154    	; 0x378 <main+0x10e>
     412:	0e 94 70 11 	call	0x22e0	; 0x22e0 <seqSetColorCount>
     416:	6a 81       	ldd	r22, Y+2	; 0x02
     418:	85 e0       	ldi	r24, 0x05	; 5
     41a:	90 e0       	ldi	r25, 0x00	; 0
     41c:	0e 94 fc 14 	call	0x29f8	; 0x29f8 <eeprom_write_byte>
     420:	8a 81       	ldd	r24, Y+2	; 0x02
     422:	88 23       	and	r24, r24
     424:	09 f4       	brne	.+2      	; 0x428 <__LOCK_REGION_LENGTH__+0x28>
     426:	a8 cf       	rjmp	.-176    	; 0x378 <main+0x10e>
     428:	8e 01       	movw	r16, r28
     42a:	0d 5f       	subi	r16, 0xFD	; 253
     42c:	1f 4f       	sbci	r17, 0xFF	; 255
     42e:	51 2c       	mov	r5, r1
     430:	c1 2c       	mov	r12, r1
     432:	d1 2c       	mov	r13, r1
     434:	bf ef       	ldi	r27, 0xFF	; 255
     436:	cb 1a       	sub	r12, r27
     438:	db 0a       	sbc	r13, r27
     43a:	f8 01       	movw	r30, r16
     43c:	22 81       	ldd	r18, Z+2	; 0x02
     43e:	41 81       	ldd	r20, Z+1	; 0x01
     440:	60 81       	ld	r22, Z
     442:	85 2d       	mov	r24, r5
     444:	0e 94 59 11 	call	0x22b2	; 0x22b2 <seqSetColorRGB>
     448:	d8 01       	movw	r26, r16
     44a:	6c 91       	ld	r22, X
     44c:	c4 01       	movw	r24, r8
     44e:	80 0f       	add	r24, r16
     450:	91 1f       	adc	r25, r17
     452:	0e 94 fc 14 	call	0x29f8	; 0x29f8 <eeprom_write_byte>
     456:	f8 01       	movw	r30, r16
     458:	61 81       	ldd	r22, Z+1	; 0x01
     45a:	c5 01       	movw	r24, r10
     45c:	80 0f       	add	r24, r16
     45e:	91 1f       	adc	r25, r17
     460:	0e 94 fc 14 	call	0x29f8	; 0x29f8 <eeprom_write_byte>
     464:	d8 01       	movw	r26, r16
     466:	12 96       	adiw	r26, 0x02	; 2
     468:	6c 91       	ld	r22, X
     46a:	c3 01       	movw	r24, r6
     46c:	80 0f       	add	r24, r16
     46e:	91 1f       	adc	r25, r17
     470:	0e 94 fc 14 	call	0x29f8	; 0x29f8 <eeprom_write_byte>
     474:	0d 5f       	subi	r16, 0xFD	; 253
     476:	1f 4f       	sbci	r17, 0xFF	; 255
     478:	53 94       	inc	r5
     47a:	8a 81       	ldd	r24, Y+2	; 0x02
     47c:	90 e0       	ldi	r25, 0x00	; 0
     47e:	c8 16       	cp	r12, r24
     480:	d9 06       	cpc	r13, r25
     482:	c4 f2       	brlt	.-80     	; 0x434 <__LOCK_REGION_LENGTH__+0x34>
     484:	79 cf       	rjmp	.-270    	; 0x378 <main+0x10e>
     486:	8a 81       	ldd	r24, Y+2	; 0x02
     488:	0e 94 36 11 	call	0x226c	; 0x226c <seqSetFunction>
     48c:	6a 81       	ldd	r22, Y+2	; 0x02
     48e:	80 e0       	ldi	r24, 0x00	; 0
     490:	90 e0       	ldi	r25, 0x00	; 0
     492:	0e 94 fc 14 	call	0x29f8	; 0x29f8 <eeprom_write_byte>
     496:	70 cf       	rjmp	.-288    	; 0x378 <main+0x10e>
     498:	8a 81       	ldd	r24, Y+2	; 0x02
     49a:	0e 94 36 11 	call	0x226c	; 0x226c <seqSetFunction>
     49e:	8b 81       	ldd	r24, Y+3	; 0x03
     4a0:	0e 94 39 11 	call	0x2272	; 0x2272 <seqSetSpeed>
     4a4:	8c 81       	ldd	r24, Y+4	; 0x04
     4a6:	0e 94 42 11 	call	0x2284	; 0x2284 <seqSetSoftness>
     4aa:	8d 81       	ldd	r24, Y+5	; 0x05
     4ac:	0e 94 4b 11 	call	0x2296	; 0x2296 <seqSetSize>
     4b0:	6a 81       	ldd	r22, Y+2	; 0x02
     4b2:	80 e0       	ldi	r24, 0x00	; 0
     4b4:	90 e0       	ldi	r25, 0x00	; 0
     4b6:	0e 94 fc 14 	call	0x29f8	; 0x29f8 <eeprom_write_byte>
     4ba:	6b 81       	ldd	r22, Y+3	; 0x03
     4bc:	82 e0       	ldi	r24, 0x02	; 2
     4be:	90 e0       	ldi	r25, 0x00	; 0
     4c0:	0e 94 fc 14 	call	0x29f8	; 0x29f8 <eeprom_write_byte>
     4c4:	6c 81       	ldd	r22, Y+4	; 0x04
     4c6:	83 e0       	ldi	r24, 0x03	; 3
     4c8:	90 e0       	ldi	r25, 0x00	; 0
     4ca:	0e 94 fc 14 	call	0x29f8	; 0x29f8 <eeprom_write_byte>
     4ce:	6d 81       	ldd	r22, Y+5	; 0x05
     4d0:	84 e0       	ldi	r24, 0x04	; 4
     4d2:	90 e0       	ldi	r25, 0x00	; 0
     4d4:	0e 94 fc 14 	call	0x29f8	; 0x29f8 <eeprom_write_byte>
     4d8:	4f cf       	rjmp	.-354    	; 0x378 <main+0x10e>
     4da:	10 82       	st	Z, r1
     4dc:	11 82       	std	Z+1, r1	; 0x01
     4de:	42 83       	std	Z+2, r20	; 0x02
     4e0:	20 cf       	rjmp	.-448    	; 0x322 <main+0xb8>
     4e2:	80 2f       	mov	r24, r16
     4e4:	0e 94 70 11 	call	0x22e0	; 0x22e0 <seqSetColorCount>
     4e8:	10 e0       	ldi	r17, 0x00	; 0
     4ea:	86 e0       	ldi	r24, 0x06	; 6
     4ec:	e8 2e       	mov	r14, r24
     4ee:	f1 2c       	mov	r15, r1
     4f0:	c1 2c       	mov	r12, r1
     4f2:	d1 2c       	mov	r13, r1
     4f4:	c7 01       	movw	r24, r14
     4f6:	0e 94 f4 14 	call	0x29e8	; 0x29e8 <eeprom_read_byte>
     4fa:	b8 2e       	mov	r11, r24
     4fc:	c7 01       	movw	r24, r14
     4fe:	01 96       	adiw	r24, 0x01	; 1
     500:	0e 94 f4 14 	call	0x29e8	; 0x29e8 <eeprom_read_byte>
     504:	a8 2e       	mov	r10, r24
     506:	c7 01       	movw	r24, r14
     508:	02 96       	adiw	r24, 0x02	; 2
     50a:	0e 94 f4 14 	call	0x29e8	; 0x29e8 <eeprom_read_byte>
     50e:	28 2f       	mov	r18, r24
     510:	4a 2d       	mov	r20, r10
     512:	6b 2d       	mov	r22, r11
     514:	8c 2d       	mov	r24, r12
     516:	0e 94 59 11 	call	0x22b2	; 0x22b2 <seqSetColorRGB>
     51a:	3f ef       	ldi	r19, 0xFF	; 255
     51c:	c3 1a       	sub	r12, r19
     51e:	d3 0a       	sbc	r13, r19
     520:	83 e0       	ldi	r24, 0x03	; 3
     522:	e8 0e       	add	r14, r24
     524:	f1 1c       	adc	r15, r1
     526:	c0 16       	cp	r12, r16
     528:	d1 06       	cpc	r13, r17
     52a:	21 f7       	brne	.-56     	; 0x4f4 <__LOCK_REGION_LENGTH__+0xf4>
     52c:	e8 ce       	rjmp	.-560    	; 0x2fe <main+0x94>
     52e:	0e 94 4b 11 	call	0x2296	; 0x2296 <seqSetSize>
     532:	db ce       	rjmp	.-586    	; 0x2ea <main+0x80>
     534:	0e 94 42 11 	call	0x2284	; 0x2284 <seqSetSoftness>
     538:	d1 ce       	rjmp	.-606    	; 0x2dc <main+0x72>
     53a:	0e 94 39 11 	call	0x2272	; 0x2272 <seqSetSpeed>
     53e:	c7 ce       	rjmp	.-626    	; 0x2ce <main+0x64>
     540:	0e 94 36 11 	call	0x226c	; 0x226c <seqSetFunction>
     544:	b3 ce       	rjmp	.-666    	; 0x2ac <main+0x42>

00000546 <seqPingPongFunc>:
     546:	2f 92       	push	r2
     548:	3f 92       	push	r3
     54a:	4f 92       	push	r4
     54c:	5f 92       	push	r5
     54e:	6f 92       	push	r6
     550:	7f 92       	push	r7
     552:	8f 92       	push	r8
     554:	9f 92       	push	r9
     556:	af 92       	push	r10
     558:	bf 92       	push	r11
     55a:	cf 92       	push	r12
     55c:	df 92       	push	r13
     55e:	ef 92       	push	r14
     560:	ff 92       	push	r15
     562:	0f 93       	push	r16
     564:	1f 93       	push	r17
     566:	cf 93       	push	r28
     568:	df 93       	push	r29
     56a:	cd b7       	in	r28, 0x3d	; 61
     56c:	de b7       	in	r29, 0x3e	; 62
     56e:	ac 97       	sbiw	r28, 0x2c	; 44
     570:	0f b6       	in	r0, 0x3f	; 63
     572:	f8 94       	cli
     574:	de bf       	out	0x3e, r29	; 62
     576:	0f be       	out	0x3f, r0	; 63
     578:	cd bf       	out	0x3d, r28	; 61
     57a:	98 2e       	mov	r9, r24
     57c:	89 2e       	mov	r8, r25
     57e:	1b 01       	movw	r2, r22
     580:	20 91 44 01 	lds	r18, 0x0144	; 0x800144 <seqSoftness>
     584:	29 83       	std	Y+1, r18	; 0x01
     586:	60 91 45 01 	lds	r22, 0x0145	; 0x800145 <seqSpeed>
     58a:	70 e0       	ldi	r23, 0x00	; 0
     58c:	80 e0       	ldi	r24, 0x00	; 0
     58e:	90 e0       	ldi	r25, 0x00	; 0
     590:	0e 94 d3 12 	call	0x25a6	; 0x25a6 <__floatsisf>
     594:	20 e0       	ldi	r18, 0x00	; 0
     596:	30 e0       	ldi	r19, 0x00	; 0
     598:	48 e4       	ldi	r20, 0x48	; 72
     59a:	52 e4       	ldi	r21, 0x42	; 66
     59c:	0e 94 30 12 	call	0x2460	; 0x2460 <__divsf3>
     5a0:	6b a3       	std	Y+35, r22	; 0x23
     5a2:	7c a3       	std	Y+36, r23	; 0x24
     5a4:	8d a3       	std	Y+37, r24	; 0x25
     5a6:	9e a3       	std	Y+38, r25	; 0x26
     5a8:	12 14       	cp	r1, r2
     5aa:	13 04       	cpc	r1, r3
     5ac:	0c f0       	brlt	.+2      	; 0x5b0 <seqPingPongFunc+0x6a>
     5ae:	87 c2       	rjmp	.+1294   	; 0xabe <seqPingPongFunc+0x578>
     5b0:	90 91 c0 03 	lds	r25, 0x03C0	; 0x8003c0 <led_dir.1888>
     5b4:	9d 8f       	std	Y+29, r25	; 0x1d
     5b6:	a0 90 bb 03 	lds	r10, 0x03BB	; 0x8003bb <color_i.1889>
     5ba:	b1 2c       	mov	r11, r1
     5bc:	f5 01       	movw	r30, r10
     5be:	ee 0f       	add	r30, r30
     5c0:	ff 1f       	adc	r31, r31
     5c2:	ee 0f       	add	r30, r30
     5c4:	ff 1f       	adc	r31, r31
     5c6:	ee 5f       	subi	r30, 0xFE	; 254
     5c8:	fe 4f       	sbci	r31, 0xFE	; 254
     5ca:	c0 80       	ld	r12, Z
     5cc:	d1 80       	ldd	r13, Z+1	; 0x01
     5ce:	e2 80       	ldd	r14, Z+2	; 0x02
     5d0:	f3 80       	ldd	r15, Z+3	; 0x03
     5d2:	af ef       	ldi	r26, 0xFF	; 255
     5d4:	aa 1a       	sub	r10, r26
     5d6:	ba 0a       	sbc	r11, r26
     5d8:	c7 01       	movw	r24, r14
     5da:	b6 01       	movw	r22, r12
     5dc:	77 27       	eor	r23, r23
     5de:	88 27       	eor	r24, r24
     5e0:	99 27       	eor	r25, r25
     5e2:	0e 94 d1 12 	call	0x25a2	; 0x25a2 <__floatunsisf>
     5e6:	69 8b       	std	Y+17, r22	; 0x11
     5e8:	7a 8b       	std	Y+18, r23	; 0x12
     5ea:	8b 8b       	std	Y+19, r24	; 0x13
     5ec:	9c 8b       	std	Y+20, r25	; 0x14
     5ee:	6d 2d       	mov	r22, r13
     5f0:	70 e0       	ldi	r23, 0x00	; 0
     5f2:	80 e0       	ldi	r24, 0x00	; 0
     5f4:	90 e0       	ldi	r25, 0x00	; 0
     5f6:	0e 94 d1 12 	call	0x25a2	; 0x25a2 <__floatunsisf>
     5fa:	6d 8b       	std	Y+21, r22	; 0x15
     5fc:	7e 8b       	std	Y+22, r23	; 0x16
     5fe:	8f 8b       	std	Y+23, r24	; 0x17
     600:	98 8f       	std	Y+24, r25	; 0x18
     602:	b7 01       	movw	r22, r14
     604:	88 27       	eor	r24, r24
     606:	99 27       	eor	r25, r25
     608:	0e 94 d1 12 	call	0x25a2	; 0x25a2 <__floatunsisf>
     60c:	69 8f       	std	Y+25, r22	; 0x19
     60e:	7a 8f       	std	Y+26, r23	; 0x1a
     610:	8b 8f       	std	Y+27, r24	; 0x1b
     612:	9c 8f       	std	Y+28, r25	; 0x1c
     614:	f9 81       	ldd	r31, Y+1	; 0x01
     616:	ef 2f       	mov	r30, r31
     618:	f0 e0       	ldi	r31, 0x00	; 0
     61a:	fa a3       	std	Y+34, r31	; 0x22
     61c:	e9 a3       	std	Y+33, r30	; 0x21
     61e:	80 91 bc 03 	lds	r24, 0x03BC	; 0x8003bc <pos.1887>
     622:	90 91 bd 03 	lds	r25, 0x03BD	; 0x8003bd <pos.1887+0x1>
     626:	a0 91 be 03 	lds	r26, 0x03BE	; 0x8003be <pos.1887+0x2>
     62a:	b0 91 bf 03 	lds	r27, 0x03BF	; 0x8003bf <pos.1887+0x3>
     62e:	89 83       	std	Y+1, r24	; 0x01
     630:	9a 83       	std	Y+2, r25	; 0x02
     632:	ab 83       	std	Y+3, r26	; 0x03
     634:	bc 83       	std	Y+4, r27	; 0x04
     636:	80 91 42 01 	lds	r24, 0x0142	; 0x800142 <numColors>
     63a:	90 e0       	ldi	r25, 0x00	; 0
     63c:	a8 16       	cp	r10, r24
     63e:	b9 06       	cpc	r11, r25
     640:	0c f0       	brlt	.+2      	; 0x644 <seqPingPongFunc+0xfe>
     642:	ee c0       	rjmp	.+476    	; 0x820 <seqPingPongFunc+0x2da>
     644:	f5 01       	movw	r30, r10
     646:	ee 0f       	add	r30, r30
     648:	ff 1f       	adc	r31, r31
     64a:	ee 0f       	add	r30, r30
     64c:	ff 1f       	adc	r31, r31
     64e:	ee 5f       	subi	r30, 0xFE	; 254
     650:	fe 4f       	sbci	r31, 0xFE	; 254
     652:	c0 80       	ld	r12, Z
     654:	d1 80       	ldd	r13, Z+1	; 0x01
     656:	e2 80       	ldd	r14, Z+2	; 0x02
     658:	f3 80       	ldd	r15, Z+3	; 0x03
     65a:	c7 01       	movw	r24, r14
     65c:	b6 01       	movw	r22, r12
     65e:	77 27       	eor	r23, r23
     660:	88 27       	eor	r24, r24
     662:	99 27       	eor	r25, r25
     664:	0e 94 d1 12 	call	0x25a2	; 0x25a2 <__floatunsisf>
     668:	6d 83       	std	Y+5, r22	; 0x05
     66a:	7e 83       	std	Y+6, r23	; 0x06
     66c:	8f 83       	std	Y+7, r24	; 0x07
     66e:	98 87       	std	Y+8, r25	; 0x08
     670:	6d 2d       	mov	r22, r13
     672:	70 e0       	ldi	r23, 0x00	; 0
     674:	80 e0       	ldi	r24, 0x00	; 0
     676:	90 e0       	ldi	r25, 0x00	; 0
     678:	0e 94 d1 12 	call	0x25a2	; 0x25a2 <__floatunsisf>
     67c:	69 87       	std	Y+9, r22	; 0x09
     67e:	7a 87       	std	Y+10, r23	; 0x0a
     680:	8b 87       	std	Y+11, r24	; 0x0b
     682:	9c 87       	std	Y+12, r25	; 0x0c
     684:	b7 01       	movw	r22, r14
     686:	88 27       	eor	r24, r24
     688:	99 27       	eor	r25, r25
     68a:	0e 94 d1 12 	call	0x25a2	; 0x25a2 <__floatunsisf>
     68e:	6d 87       	std	Y+13, r22	; 0x0d
     690:	7e 87       	std	Y+14, r23	; 0x0e
     692:	8f 87       	std	Y+15, r24	; 0x0f
     694:	98 8b       	std	Y+16, r25	; 0x10
     696:	9d 8d       	ldd	r25, Y+29	; 0x1d
     698:	99 23       	and	r25, r25
     69a:	09 f4       	brne	.+2      	; 0x69e <seqPingPongFunc+0x158>
     69c:	46 c1       	rjmp	.+652    	; 0x92a <seqPingPongFunc+0x3e4>
     69e:	9b a6       	std	Y+43, r9	; 0x2b
     6a0:	8c a6       	std	Y+44, r8	; 0x2c
     6a2:	00 e0       	ldi	r16, 0x00	; 0
     6a4:	10 e0       	ldi	r17, 0x00	; 0
     6a6:	89 a1       	ldd	r24, Y+33	; 0x21
     6a8:	9a a1       	ldd	r25, Y+34	; 0x22
     6aa:	09 2e       	mov	r0, r25
     6ac:	00 0c       	add	r0, r0
     6ae:	aa 0b       	sbc	r26, r26
     6b0:	bb 0b       	sbc	r27, r27
     6b2:	8f a3       	std	Y+39, r24	; 0x27
     6b4:	98 a7       	std	Y+40, r25	; 0x28
     6b6:	a9 a7       	std	Y+41, r26	; 0x29
     6b8:	ba a7       	std	Y+42, r27	; 0x2a
     6ba:	97 c0       	rjmp	.+302    	; 0x7ea <seqPingPongFunc+0x2a4>
     6bc:	6f a1       	ldd	r22, Y+39	; 0x27
     6be:	78 a5       	ldd	r23, Y+40	; 0x28
     6c0:	89 a5       	ldd	r24, Y+41	; 0x29
     6c2:	9a a5       	ldd	r25, Y+42	; 0x2a
     6c4:	0e 94 d3 12 	call	0x25a6	; 0x25a6 <__floatsisf>
     6c8:	4b 01       	movw	r8, r22
     6ca:	5c 01       	movw	r10, r24
     6cc:	9b 01       	movw	r18, r22
     6ce:	ac 01       	movw	r20, r24
     6d0:	69 81       	ldd	r22, Y+1	; 0x01
     6d2:	7a 81       	ldd	r23, Y+2	; 0x02
     6d4:	8b 81       	ldd	r24, Y+3	; 0x03
     6d6:	9c 81       	ldd	r25, Y+4	; 0x04
     6d8:	0e 94 be 11 	call	0x237c	; 0x237c <__subsf3>
     6dc:	a7 01       	movw	r20, r14
     6de:	96 01       	movw	r18, r12
     6e0:	0e 94 2b 12 	call	0x2456	; 0x2456 <__cmpsf2>
     6e4:	18 16       	cp	r1, r24
     6e6:	0c f4       	brge	.+2      	; 0x6ea <seqPingPongFunc+0x1a4>
     6e8:	9e c0       	rjmp	.+316    	; 0x826 <seqPingPongFunc+0x2e0>
     6ea:	a7 01       	movw	r20, r14
     6ec:	96 01       	movw	r18, r12
     6ee:	69 81       	ldd	r22, Y+1	; 0x01
     6f0:	7a 81       	ldd	r23, Y+2	; 0x02
     6f2:	8b 81       	ldd	r24, Y+3	; 0x03
     6f4:	9c 81       	ldd	r25, Y+4	; 0x04
     6f6:	0e 94 be 11 	call	0x237c	; 0x237c <__subsf3>
     6fa:	a5 01       	movw	r20, r10
     6fc:	94 01       	movw	r18, r8
     6fe:	0e 94 30 12 	call	0x2460	; 0x2460 <__divsf3>
     702:	9b 01       	movw	r18, r22
     704:	ac 01       	movw	r20, r24
     706:	60 e0       	ldi	r22, 0x00	; 0
     708:	70 e0       	ldi	r23, 0x00	; 0
     70a:	80 e8       	ldi	r24, 0x80	; 128
     70c:	9f e3       	ldi	r25, 0x3F	; 63
     70e:	0e 94 be 11 	call	0x237c	; 0x237c <__subsf3>
     712:	6b 01       	movw	r12, r22
     714:	7c 01       	movw	r14, r24
     716:	9b 01       	movw	r18, r22
     718:	ac 01       	movw	r20, r24
     71a:	60 e0       	ldi	r22, 0x00	; 0
     71c:	70 e0       	ldi	r23, 0x00	; 0
     71e:	80 e8       	ldi	r24, 0x80	; 128
     720:	9f e3       	ldi	r25, 0x3F	; 63
     722:	0e 94 be 11 	call	0x237c	; 0x237c <__subsf3>
     726:	4b 01       	movw	r8, r22
     728:	5c 01       	movw	r10, r24
     72a:	a5 01       	movw	r20, r10
     72c:	94 01       	movw	r18, r8
     72e:	69 89       	ldd	r22, Y+17	; 0x11
     730:	7a 89       	ldd	r23, Y+18	; 0x12
     732:	8b 89       	ldd	r24, Y+19	; 0x13
     734:	9c 89       	ldd	r25, Y+20	; 0x14
     736:	0e 94 88 13 	call	0x2710	; 0x2710 <__mulsf3>
     73a:	2b 01       	movw	r4, r22
     73c:	3c 01       	movw	r6, r24
     73e:	a7 01       	movw	r20, r14
     740:	96 01       	movw	r18, r12
     742:	6d 81       	ldd	r22, Y+5	; 0x05
     744:	7e 81       	ldd	r23, Y+6	; 0x06
     746:	8f 81       	ldd	r24, Y+7	; 0x07
     748:	98 85       	ldd	r25, Y+8	; 0x08
     74a:	0e 94 88 13 	call	0x2710	; 0x2710 <__mulsf3>
     74e:	9b 01       	movw	r18, r22
     750:	ac 01       	movw	r20, r24
     752:	c3 01       	movw	r24, r6
     754:	b2 01       	movw	r22, r4
     756:	0e 94 bf 11 	call	0x237e	; 0x237e <__addsf3>
     75a:	0e 94 a2 12 	call	0x2544	; 0x2544 <__fixunssfsi>
     75e:	ab a5       	ldd	r26, Y+43	; 0x2b
     760:	bc a5       	ldd	r27, Y+44	; 0x2c
     762:	11 96       	adiw	r26, 0x01	; 1
     764:	6c 93       	st	X, r22
     766:	a5 01       	movw	r20, r10
     768:	94 01       	movw	r18, r8
     76a:	6d 89       	ldd	r22, Y+21	; 0x15
     76c:	7e 89       	ldd	r23, Y+22	; 0x16
     76e:	8f 89       	ldd	r24, Y+23	; 0x17
     770:	98 8d       	ldd	r25, Y+24	; 0x18
     772:	0e 94 88 13 	call	0x2710	; 0x2710 <__mulsf3>
     776:	2b 01       	movw	r4, r22
     778:	3c 01       	movw	r6, r24
     77a:	a7 01       	movw	r20, r14
     77c:	96 01       	movw	r18, r12
     77e:	69 85       	ldd	r22, Y+9	; 0x09
     780:	7a 85       	ldd	r23, Y+10	; 0x0a
     782:	8b 85       	ldd	r24, Y+11	; 0x0b
     784:	9c 85       	ldd	r25, Y+12	; 0x0c
     786:	0e 94 88 13 	call	0x2710	; 0x2710 <__mulsf3>
     78a:	9b 01       	movw	r18, r22
     78c:	ac 01       	movw	r20, r24
     78e:	c3 01       	movw	r24, r6
     790:	b2 01       	movw	r22, r4
     792:	0e 94 bf 11 	call	0x237e	; 0x237e <__addsf3>
     796:	0e 94 a2 12 	call	0x2544	; 0x2544 <__fixunssfsi>
     79a:	eb a5       	ldd	r30, Y+43	; 0x2b
     79c:	fc a5       	ldd	r31, Y+44	; 0x2c
     79e:	62 83       	std	Z+2, r22	; 0x02
     7a0:	a5 01       	movw	r20, r10
     7a2:	94 01       	movw	r18, r8
     7a4:	69 8d       	ldd	r22, Y+25	; 0x19
     7a6:	7a 8d       	ldd	r23, Y+26	; 0x1a
     7a8:	8b 8d       	ldd	r24, Y+27	; 0x1b
     7aa:	9c 8d       	ldd	r25, Y+28	; 0x1c
     7ac:	0e 94 88 13 	call	0x2710	; 0x2710 <__mulsf3>
     7b0:	4b 01       	movw	r8, r22
     7b2:	5c 01       	movw	r10, r24
     7b4:	a7 01       	movw	r20, r14
     7b6:	96 01       	movw	r18, r12
     7b8:	6d 85       	ldd	r22, Y+13	; 0x0d
     7ba:	7e 85       	ldd	r23, Y+14	; 0x0e
     7bc:	8f 85       	ldd	r24, Y+15	; 0x0f
     7be:	98 89       	ldd	r25, Y+16	; 0x10
     7c0:	0e 94 88 13 	call	0x2710	; 0x2710 <__mulsf3>
     7c4:	9b 01       	movw	r18, r22
     7c6:	ac 01       	movw	r20, r24
     7c8:	c5 01       	movw	r24, r10
     7ca:	b4 01       	movw	r22, r8
     7cc:	0e 94 bf 11 	call	0x237e	; 0x237e <__addsf3>
     7d0:	0e 94 a2 12 	call	0x2544	; 0x2544 <__fixunssfsi>
     7d4:	ab a5       	ldd	r26, Y+43	; 0x2b
     7d6:	bc a5       	ldd	r27, Y+44	; 0x2c
     7d8:	6c 93       	st	X, r22
     7da:	0f 5f       	subi	r16, 0xFF	; 255
     7dc:	1f 4f       	sbci	r17, 0xFF	; 255
     7de:	14 96       	adiw	r26, 0x04	; 4
     7e0:	bc a7       	std	Y+44, r27	; 0x2c
     7e2:	ab a7       	std	Y+43, r26	; 0x2b
     7e4:	20 16       	cp	r2, r16
     7e6:	31 06       	cpc	r3, r17
     7e8:	41 f1       	breq	.+80     	; 0x83a <seqPingPongFunc+0x2f4>
     7ea:	b8 01       	movw	r22, r16
     7ec:	01 2e       	mov	r0, r17
     7ee:	00 0c       	add	r0, r0
     7f0:	88 0b       	sbc	r24, r24
     7f2:	99 0b       	sbc	r25, r25
     7f4:	0e 94 d3 12 	call	0x25a6	; 0x25a6 <__floatsisf>
     7f8:	6b 01       	movw	r12, r22
     7fa:	7c 01       	movw	r14, r24
     7fc:	29 81       	ldd	r18, Y+1	; 0x01
     7fe:	3a 81       	ldd	r19, Y+2	; 0x02
     800:	4b 81       	ldd	r20, Y+3	; 0x03
     802:	5c 81       	ldd	r21, Y+4	; 0x04
     804:	0e 94 83 13 	call	0x2706	; 0x2706 <__gesf2>
     808:	87 fd       	sbrc	r24, 7
     80a:	58 cf       	rjmp	.-336    	; 0x6bc <seqPingPongFunc+0x176>
     80c:	81 2c       	mov	r8, r1
     80e:	91 2c       	mov	r9, r1
     810:	54 01       	movw	r10, r8
     812:	c1 2c       	mov	r12, r1
     814:	d1 2c       	mov	r13, r1
     816:	30 e8       	ldi	r19, 0x80	; 128
     818:	e3 2e       	mov	r14, r19
     81a:	3f e3       	ldi	r19, 0x3F	; 63
     81c:	f3 2e       	mov	r15, r19
     81e:	85 cf       	rjmp	.-246    	; 0x72a <seqPingPongFunc+0x1e4>
     820:	e0 e0       	ldi	r30, 0x00	; 0
     822:	f0 e0       	ldi	r31, 0x00	; 0
     824:	10 cf       	rjmp	.-480    	; 0x646 <seqPingPongFunc+0x100>
     826:	81 2c       	mov	r8, r1
     828:	91 2c       	mov	r9, r1
     82a:	20 e8       	ldi	r18, 0x80	; 128
     82c:	a2 2e       	mov	r10, r18
     82e:	2f e3       	ldi	r18, 0x3F	; 63
     830:	b2 2e       	mov	r11, r18
     832:	c1 2c       	mov	r12, r1
     834:	d1 2c       	mov	r13, r1
     836:	76 01       	movw	r14, r12
     838:	78 cf       	rjmp	.-272    	; 0x72a <seqPingPongFunc+0x1e4>
     83a:	69 81       	ldd	r22, Y+1	; 0x01
     83c:	7a 81       	ldd	r23, Y+2	; 0x02
     83e:	8b 81       	ldd	r24, Y+3	; 0x03
     840:	9c 81       	ldd	r25, Y+4	; 0x04
     842:	2b a1       	ldd	r18, Y+35	; 0x23
     844:	3c a1       	ldd	r19, Y+36	; 0x24
     846:	4d a1       	ldd	r20, Y+37	; 0x25
     848:	5e a1       	ldd	r21, Y+38	; 0x26
     84a:	0e 94 be 11 	call	0x237c	; 0x237c <__subsf3>
     84e:	6b 01       	movw	r12, r22
     850:	7c 01       	movw	r14, r24
     852:	60 93 bc 03 	sts	0x03BC, r22	; 0x8003bc <pos.1887>
     856:	70 93 bd 03 	sts	0x03BD, r23	; 0x8003bd <pos.1887+0x1>
     85a:	80 93 be 03 	sts	0x03BE, r24	; 0x8003be <pos.1887+0x2>
     85e:	90 93 bf 03 	sts	0x03BF, r25	; 0x8003bf <pos.1887+0x3>
     862:	e9 a1       	ldd	r30, Y+33	; 0x21
     864:	fa a1       	ldd	r31, Y+34	; 0x22
     866:	e2 0d       	add	r30, r2
     868:	f3 1d       	adc	r31, r3
     86a:	fa 83       	std	Y+2, r31	; 0x02
     86c:	e9 83       	std	Y+1, r30	; 0x01
     86e:	bf 01       	movw	r22, r30
     870:	ff 0f       	add	r31, r31
     872:	88 0b       	sbc	r24, r24
     874:	99 0b       	sbc	r25, r25
     876:	0e 94 d3 12 	call	0x25a6	; 0x25a6 <__floatsisf>
     87a:	a7 01       	movw	r20, r14
     87c:	96 01       	movw	r18, r12
     87e:	0e 94 2b 12 	call	0x2456	; 0x2456 <__cmpsf2>
     882:	18 16       	cp	r1, r24
     884:	8c f4       	brge	.+34     	; 0x8a8 <seqPingPongFunc+0x362>
     886:	69 a1       	ldd	r22, Y+33	; 0x21
     888:	7a a1       	ldd	r23, Y+34	; 0x22
     88a:	71 95       	neg	r23
     88c:	61 95       	neg	r22
     88e:	71 09       	sbc	r23, r1
     890:	07 2e       	mov	r0, r23
     892:	00 0c       	add	r0, r0
     894:	88 0b       	sbc	r24, r24
     896:	99 0b       	sbc	r25, r25
     898:	0e 94 d3 12 	call	0x25a6	; 0x25a6 <__floatsisf>
     89c:	a7 01       	movw	r20, r14
     89e:	96 01       	movw	r18, r12
     8a0:	0e 94 83 13 	call	0x2706	; 0x2706 <__gesf2>
     8a4:	18 16       	cp	r1, r24
     8a6:	44 f5       	brge	.+80     	; 0x8f8 <seqPingPongFunc+0x3b2>
     8a8:	80 91 bb 03 	lds	r24, 0x03BB	; 0x8003bb <color_i.1889>
     8ac:	90 e0       	ldi	r25, 0x00	; 0
     8ae:	01 96       	adiw	r24, 0x01	; 1
     8b0:	60 91 42 01 	lds	r22, 0x0142	; 0x800142 <numColors>
     8b4:	70 e0       	ldi	r23, 0x00	; 0
     8b6:	0e 94 85 14 	call	0x290a	; 0x290a <__divmodhi4>
     8ba:	80 93 bb 03 	sts	0x03BB, r24	; 0x8003bb <color_i.1889>
     8be:	81 e0       	ldi	r24, 0x01	; 1
     8c0:	fd 8d       	ldd	r31, Y+29	; 0x1d
     8c2:	f1 30       	cpi	r31, 0x01	; 1
     8c4:	09 f4       	brne	.+2      	; 0x8c8 <seqPingPongFunc+0x382>
     8c6:	3d c1       	rjmp	.+634    	; 0xb42 <seqPingPongFunc+0x5fc>
     8c8:	80 93 c0 03 	sts	0x03C0, r24	; 0x8003c0 <led_dir.1888>
     8cc:	2d 8d       	ldd	r18, Y+29	; 0x1d
     8ce:	21 30       	cpi	r18, 0x01	; 1
     8d0:	09 f4       	brne	.+2      	; 0x8d4 <seqPingPongFunc+0x38e>
     8d2:	21 c1       	rjmp	.+578    	; 0xb16 <seqPingPongFunc+0x5d0>
     8d4:	69 81       	ldd	r22, Y+1	; 0x01
     8d6:	7a 81       	ldd	r23, Y+2	; 0x02
     8d8:	61 50       	subi	r22, 0x01	; 1
     8da:	71 09       	sbc	r23, r1
     8dc:	07 2e       	mov	r0, r23
     8de:	00 0c       	add	r0, r0
     8e0:	88 0b       	sbc	r24, r24
     8e2:	99 0b       	sbc	r25, r25
     8e4:	0e 94 d3 12 	call	0x25a6	; 0x25a6 <__floatsisf>
     8e8:	60 93 bc 03 	sts	0x03BC, r22	; 0x8003bc <pos.1887>
     8ec:	70 93 bd 03 	sts	0x03BD, r23	; 0x8003bd <pos.1887+0x1>
     8f0:	80 93 be 03 	sts	0x03BE, r24	; 0x8003be <pos.1887+0x2>
     8f4:	90 93 bf 03 	sts	0x03BF, r25	; 0x8003bf <pos.1887+0x3>
     8f8:	ac 96       	adiw	r28, 0x2c	; 44
     8fa:	0f b6       	in	r0, 0x3f	; 63
     8fc:	f8 94       	cli
     8fe:	de bf       	out	0x3e, r29	; 62
     900:	0f be       	out	0x3f, r0	; 63
     902:	cd bf       	out	0x3d, r28	; 61
     904:	df 91       	pop	r29
     906:	cf 91       	pop	r28
     908:	1f 91       	pop	r17
     90a:	0f 91       	pop	r16
     90c:	ff 90       	pop	r15
     90e:	ef 90       	pop	r14
     910:	df 90       	pop	r13
     912:	cf 90       	pop	r12
     914:	bf 90       	pop	r11
     916:	af 90       	pop	r10
     918:	9f 90       	pop	r9
     91a:	8f 90       	pop	r8
     91c:	7f 90       	pop	r7
     91e:	6f 90       	pop	r6
     920:	5f 90       	pop	r5
     922:	4f 90       	pop	r4
     924:	3f 90       	pop	r3
     926:	2f 90       	pop	r2
     928:	08 95       	ret
     92a:	9f a2       	std	Y+39, r9	; 0x27
     92c:	88 a6       	std	Y+40, r8	; 0x28
     92e:	00 e0       	ldi	r16, 0x00	; 0
     930:	10 e0       	ldi	r17, 0x00	; 0
     932:	89 a1       	ldd	r24, Y+33	; 0x21
     934:	9a a1       	ldd	r25, Y+34	; 0x22
     936:	09 2e       	mov	r0, r25
     938:	00 0c       	add	r0, r0
     93a:	aa 0b       	sbc	r26, r26
     93c:	bb 0b       	sbc	r27, r27
     93e:	8d 8f       	std	Y+29, r24	; 0x1d
     940:	9e 8f       	std	Y+30, r25	; 0x1e
     942:	af 8f       	std	Y+31, r26	; 0x1f
     944:	b8 a3       	std	Y+32, r27	; 0x20
     946:	96 c0       	rjmp	.+300    	; 0xa74 <seqPingPongFunc+0x52e>
     948:	6d 8d       	ldd	r22, Y+29	; 0x1d
     94a:	7e 8d       	ldd	r23, Y+30	; 0x1e
     94c:	8f 8d       	ldd	r24, Y+31	; 0x1f
     94e:	98 a1       	ldd	r25, Y+32	; 0x20
     950:	0e 94 d3 12 	call	0x25a6	; 0x25a6 <__floatsisf>
     954:	4b 01       	movw	r8, r22
     956:	5c 01       	movw	r10, r24
     958:	29 81       	ldd	r18, Y+1	; 0x01
     95a:	3a 81       	ldd	r19, Y+2	; 0x02
     95c:	4b 81       	ldd	r20, Y+3	; 0x03
     95e:	5c 81       	ldd	r21, Y+4	; 0x04
     960:	0e 94 bf 11 	call	0x237e	; 0x237e <__addsf3>
     964:	9b 01       	movw	r18, r22
     966:	ac 01       	movw	r20, r24
     968:	c7 01       	movw	r24, r14
     96a:	b6 01       	movw	r22, r12
     96c:	0e 94 2b 12 	call	0x2456	; 0x2456 <__cmpsf2>
     970:	87 ff       	sbrs	r24, 7
     972:	9b c0       	rjmp	.+310    	; 0xaaa <seqPingPongFunc+0x564>
     974:	29 81       	ldd	r18, Y+1	; 0x01
     976:	3a 81       	ldd	r19, Y+2	; 0x02
     978:	4b 81       	ldd	r20, Y+3	; 0x03
     97a:	5c 81       	ldd	r21, Y+4	; 0x04
     97c:	c7 01       	movw	r24, r14
     97e:	b6 01       	movw	r22, r12
     980:	0e 94 be 11 	call	0x237c	; 0x237c <__subsf3>
     984:	a5 01       	movw	r20, r10
     986:	94 01       	movw	r18, r8
     988:	0e 94 30 12 	call	0x2460	; 0x2460 <__divsf3>
     98c:	9b 01       	movw	r18, r22
     98e:	ac 01       	movw	r20, r24
     990:	60 e0       	ldi	r22, 0x00	; 0
     992:	70 e0       	ldi	r23, 0x00	; 0
     994:	80 e8       	ldi	r24, 0x80	; 128
     996:	9f e3       	ldi	r25, 0x3F	; 63
     998:	0e 94 be 11 	call	0x237c	; 0x237c <__subsf3>
     99c:	6b 01       	movw	r12, r22
     99e:	7c 01       	movw	r14, r24
     9a0:	9b 01       	movw	r18, r22
     9a2:	ac 01       	movw	r20, r24
     9a4:	60 e0       	ldi	r22, 0x00	; 0
     9a6:	70 e0       	ldi	r23, 0x00	; 0
     9a8:	80 e8       	ldi	r24, 0x80	; 128
     9aa:	9f e3       	ldi	r25, 0x3F	; 63
     9ac:	0e 94 be 11 	call	0x237c	; 0x237c <__subsf3>
     9b0:	4b 01       	movw	r8, r22
     9b2:	5c 01       	movw	r10, r24
     9b4:	2d 81       	ldd	r18, Y+5	; 0x05
     9b6:	3e 81       	ldd	r19, Y+6	; 0x06
     9b8:	4f 81       	ldd	r20, Y+7	; 0x07
     9ba:	58 85       	ldd	r21, Y+8	; 0x08
     9bc:	c7 01       	movw	r24, r14
     9be:	b6 01       	movw	r22, r12
     9c0:	0e 94 88 13 	call	0x2710	; 0x2710 <__mulsf3>
     9c4:	2b 01       	movw	r4, r22
     9c6:	3c 01       	movw	r6, r24
     9c8:	a5 01       	movw	r20, r10
     9ca:	94 01       	movw	r18, r8
     9cc:	69 89       	ldd	r22, Y+17	; 0x11
     9ce:	7a 89       	ldd	r23, Y+18	; 0x12
     9d0:	8b 89       	ldd	r24, Y+19	; 0x13
     9d2:	9c 89       	ldd	r25, Y+20	; 0x14
     9d4:	0e 94 88 13 	call	0x2710	; 0x2710 <__mulsf3>
     9d8:	9b 01       	movw	r18, r22
     9da:	ac 01       	movw	r20, r24
     9dc:	c3 01       	movw	r24, r6
     9de:	b2 01       	movw	r22, r4
     9e0:	0e 94 bf 11 	call	0x237e	; 0x237e <__addsf3>
     9e4:	0e 94 a2 12 	call	0x2544	; 0x2544 <__fixunssfsi>
     9e8:	af a1       	ldd	r26, Y+39	; 0x27
     9ea:	b8 a5       	ldd	r27, Y+40	; 0x28
     9ec:	11 96       	adiw	r26, 0x01	; 1
     9ee:	6c 93       	st	X, r22
     9f0:	29 85       	ldd	r18, Y+9	; 0x09
     9f2:	3a 85       	ldd	r19, Y+10	; 0x0a
     9f4:	4b 85       	ldd	r20, Y+11	; 0x0b
     9f6:	5c 85       	ldd	r21, Y+12	; 0x0c
     9f8:	c7 01       	movw	r24, r14
     9fa:	b6 01       	movw	r22, r12
     9fc:	0e 94 88 13 	call	0x2710	; 0x2710 <__mulsf3>
     a00:	2b 01       	movw	r4, r22
     a02:	3c 01       	movw	r6, r24
     a04:	a5 01       	movw	r20, r10
     a06:	94 01       	movw	r18, r8
     a08:	6d 89       	ldd	r22, Y+21	; 0x15
     a0a:	7e 89       	ldd	r23, Y+22	; 0x16
     a0c:	8f 89       	ldd	r24, Y+23	; 0x17
     a0e:	98 8d       	ldd	r25, Y+24	; 0x18
     a10:	0e 94 88 13 	call	0x2710	; 0x2710 <__mulsf3>
     a14:	9b 01       	movw	r18, r22
     a16:	ac 01       	movw	r20, r24
     a18:	c3 01       	movw	r24, r6
     a1a:	b2 01       	movw	r22, r4
     a1c:	0e 94 bf 11 	call	0x237e	; 0x237e <__addsf3>
     a20:	0e 94 a2 12 	call	0x2544	; 0x2544 <__fixunssfsi>
     a24:	ef a1       	ldd	r30, Y+39	; 0x27
     a26:	f8 a5       	ldd	r31, Y+40	; 0x28
     a28:	62 83       	std	Z+2, r22	; 0x02
     a2a:	2d 85       	ldd	r18, Y+13	; 0x0d
     a2c:	3e 85       	ldd	r19, Y+14	; 0x0e
     a2e:	4f 85       	ldd	r20, Y+15	; 0x0f
     a30:	58 89       	ldd	r21, Y+16	; 0x10
     a32:	c7 01       	movw	r24, r14
     a34:	b6 01       	movw	r22, r12
     a36:	0e 94 88 13 	call	0x2710	; 0x2710 <__mulsf3>
     a3a:	6b 01       	movw	r12, r22
     a3c:	7c 01       	movw	r14, r24
     a3e:	a5 01       	movw	r20, r10
     a40:	94 01       	movw	r18, r8
     a42:	69 8d       	ldd	r22, Y+25	; 0x19
     a44:	7a 8d       	ldd	r23, Y+26	; 0x1a
     a46:	8b 8d       	ldd	r24, Y+27	; 0x1b
     a48:	9c 8d       	ldd	r25, Y+28	; 0x1c
     a4a:	0e 94 88 13 	call	0x2710	; 0x2710 <__mulsf3>
     a4e:	9b 01       	movw	r18, r22
     a50:	ac 01       	movw	r20, r24
     a52:	c7 01       	movw	r24, r14
     a54:	b6 01       	movw	r22, r12
     a56:	0e 94 bf 11 	call	0x237e	; 0x237e <__addsf3>
     a5a:	0e 94 a2 12 	call	0x2544	; 0x2544 <__fixunssfsi>
     a5e:	af a1       	ldd	r26, Y+39	; 0x27
     a60:	b8 a5       	ldd	r27, Y+40	; 0x28
     a62:	6c 93       	st	X, r22
     a64:	0f 5f       	subi	r16, 0xFF	; 255
     a66:	1f 4f       	sbci	r17, 0xFF	; 255
     a68:	14 96       	adiw	r26, 0x04	; 4
     a6a:	b8 a7       	std	Y+40, r27	; 0x28
     a6c:	af a3       	std	Y+39, r26	; 0x27
     a6e:	20 16       	cp	r2, r16
     a70:	31 06       	cpc	r3, r17
     a72:	d9 f1       	breq	.+118    	; 0xaea <seqPingPongFunc+0x5a4>
     a74:	b8 01       	movw	r22, r16
     a76:	01 2e       	mov	r0, r17
     a78:	00 0c       	add	r0, r0
     a7a:	88 0b       	sbc	r24, r24
     a7c:	99 0b       	sbc	r25, r25
     a7e:	0e 94 d3 12 	call	0x25a6	; 0x25a6 <__floatsisf>
     a82:	6b 01       	movw	r12, r22
     a84:	7c 01       	movw	r14, r24
     a86:	29 81       	ldd	r18, Y+1	; 0x01
     a88:	3a 81       	ldd	r19, Y+2	; 0x02
     a8a:	4b 81       	ldd	r20, Y+3	; 0x03
     a8c:	5c 81       	ldd	r21, Y+4	; 0x04
     a8e:	0e 94 2b 12 	call	0x2456	; 0x2456 <__cmpsf2>
     a92:	87 ff       	sbrs	r24, 7
     a94:	59 cf       	rjmp	.-334    	; 0x948 <seqPingPongFunc+0x402>
     a96:	81 2c       	mov	r8, r1
     a98:	91 2c       	mov	r9, r1
     a9a:	54 01       	movw	r10, r8
     a9c:	c1 2c       	mov	r12, r1
     a9e:	d1 2c       	mov	r13, r1
     aa0:	90 e8       	ldi	r25, 0x80	; 128
     aa2:	e9 2e       	mov	r14, r25
     aa4:	9f e3       	ldi	r25, 0x3F	; 63
     aa6:	f9 2e       	mov	r15, r25
     aa8:	85 cf       	rjmp	.-246    	; 0x9b4 <seqPingPongFunc+0x46e>
     aaa:	81 2c       	mov	r8, r1
     aac:	91 2c       	mov	r9, r1
     aae:	80 e8       	ldi	r24, 0x80	; 128
     ab0:	a8 2e       	mov	r10, r24
     ab2:	8f e3       	ldi	r24, 0x3F	; 63
     ab4:	b8 2e       	mov	r11, r24
     ab6:	c1 2c       	mov	r12, r1
     ab8:	d1 2c       	mov	r13, r1
     aba:	76 01       	movw	r14, r12
     abc:	7b cf       	rjmp	.-266    	; 0x9b4 <seqPingPongFunc+0x46e>
     abe:	30 91 c0 03 	lds	r19, 0x03C0	; 0x8003c0 <led_dir.1888>
     ac2:	3d 8f       	std	Y+29, r19	; 0x1d
     ac4:	99 81       	ldd	r25, Y+1	; 0x01
     ac6:	89 2f       	mov	r24, r25
     ac8:	90 e0       	ldi	r25, 0x00	; 0
     aca:	9a a3       	std	Y+34, r25	; 0x22
     acc:	89 a3       	std	Y+33, r24	; 0x21
     ace:	80 91 bc 03 	lds	r24, 0x03BC	; 0x8003bc <pos.1887>
     ad2:	90 91 bd 03 	lds	r25, 0x03BD	; 0x8003bd <pos.1887+0x1>
     ad6:	a0 91 be 03 	lds	r26, 0x03BE	; 0x8003be <pos.1887+0x2>
     ada:	b0 91 bf 03 	lds	r27, 0x03BF	; 0x8003bf <pos.1887+0x3>
     ade:	89 83       	std	Y+1, r24	; 0x01
     ae0:	9a 83       	std	Y+2, r25	; 0x02
     ae2:	ab 83       	std	Y+3, r26	; 0x03
     ae4:	bc 83       	std	Y+4, r27	; 0x04
     ae6:	31 11       	cpse	r19, r1
     ae8:	2e c0       	rjmp	.+92     	; 0xb46 <seqPingPongFunc+0x600>
     aea:	29 81       	ldd	r18, Y+1	; 0x01
     aec:	3a 81       	ldd	r19, Y+2	; 0x02
     aee:	4b 81       	ldd	r20, Y+3	; 0x03
     af0:	5c 81       	ldd	r21, Y+4	; 0x04
     af2:	6b a1       	ldd	r22, Y+35	; 0x23
     af4:	7c a1       	ldd	r23, Y+36	; 0x24
     af6:	8d a1       	ldd	r24, Y+37	; 0x25
     af8:	9e a1       	ldd	r25, Y+38	; 0x26
     afa:	0e 94 bf 11 	call	0x237e	; 0x237e <__addsf3>
     afe:	6b 01       	movw	r12, r22
     b00:	7c 01       	movw	r14, r24
     b02:	60 93 bc 03 	sts	0x03BC, r22	; 0x8003bc <pos.1887>
     b06:	70 93 bd 03 	sts	0x03BD, r23	; 0x8003bd <pos.1887+0x1>
     b0a:	80 93 be 03 	sts	0x03BE, r24	; 0x8003be <pos.1887+0x2>
     b0e:	90 93 bf 03 	sts	0x03BF, r25	; 0x8003bf <pos.1887+0x3>
     b12:	1d 8e       	std	Y+29, r1	; 0x1d
     b14:	a6 ce       	rjmp	.-692    	; 0x862 <seqPingPongFunc+0x31c>
     b16:	89 a1       	ldd	r24, Y+33	; 0x21
     b18:	9a a1       	ldd	r25, Y+34	; 0x22
     b1a:	91 95       	neg	r25
     b1c:	81 95       	neg	r24
     b1e:	91 09       	sbc	r25, r1
     b20:	9a 83       	std	Y+2, r25	; 0x02
     b22:	89 83       	std	Y+1, r24	; 0x01
     b24:	bc 01       	movw	r22, r24
     b26:	99 0f       	add	r25, r25
     b28:	88 0b       	sbc	r24, r24
     b2a:	99 0b       	sbc	r25, r25
     b2c:	0e 94 d3 12 	call	0x25a6	; 0x25a6 <__floatsisf>
     b30:	60 93 bc 03 	sts	0x03BC, r22	; 0x8003bc <pos.1887>
     b34:	70 93 bd 03 	sts	0x03BD, r23	; 0x8003bd <pos.1887+0x1>
     b38:	80 93 be 03 	sts	0x03BE, r24	; 0x8003be <pos.1887+0x2>
     b3c:	90 93 bf 03 	sts	0x03BF, r25	; 0x8003bf <pos.1887+0x3>
     b40:	db ce       	rjmp	.-586    	; 0x8f8 <seqPingPongFunc+0x3b2>
     b42:	80 e0       	ldi	r24, 0x00	; 0
     b44:	c1 ce       	rjmp	.-638    	; 0x8c8 <seqPingPongFunc+0x382>
     b46:	bc 01       	movw	r22, r24
     b48:	cd 01       	movw	r24, r26
     b4a:	7b ce       	rjmp	.-778    	; 0x842 <seqPingPongFunc+0x2fc>

00000b4c <seqDoublePingPongFunc>:
     b4c:	2f 92       	push	r2
     b4e:	3f 92       	push	r3
     b50:	4f 92       	push	r4
     b52:	5f 92       	push	r5
     b54:	6f 92       	push	r6
     b56:	7f 92       	push	r7
     b58:	8f 92       	push	r8
     b5a:	9f 92       	push	r9
     b5c:	af 92       	push	r10
     b5e:	bf 92       	push	r11
     b60:	cf 92       	push	r12
     b62:	df 92       	push	r13
     b64:	ef 92       	push	r14
     b66:	ff 92       	push	r15
     b68:	0f 93       	push	r16
     b6a:	1f 93       	push	r17
     b6c:	cf 93       	push	r28
     b6e:	df 93       	push	r29
     b70:	cd b7       	in	r28, 0x3d	; 61
     b72:	de b7       	in	r29, 0x3e	; 62
     b74:	ac 97       	sbiw	r28, 0x2c	; 44
     b76:	0f b6       	in	r0, 0x3f	; 63
     b78:	f8 94       	cli
     b7a:	de bf       	out	0x3e, r29	; 62
     b7c:	0f be       	out	0x3f, r0	; 63
     b7e:	cd bf       	out	0x3d, r28	; 61
     b80:	78 2e       	mov	r7, r24
     b82:	99 83       	std	Y+1, r25	; 0x01
     b84:	1b 01       	movw	r2, r22
     b86:	60 90 44 01 	lds	r6, 0x0144	; 0x800144 <seqSoftness>
     b8a:	60 91 45 01 	lds	r22, 0x0145	; 0x800145 <seqSpeed>
     b8e:	70 e0       	ldi	r23, 0x00	; 0
     b90:	80 e0       	ldi	r24, 0x00	; 0
     b92:	90 e0       	ldi	r25, 0x00	; 0
     b94:	0e 94 d3 12 	call	0x25a6	; 0x25a6 <__floatsisf>
     b98:	20 e0       	ldi	r18, 0x00	; 0
     b9a:	30 e0       	ldi	r19, 0x00	; 0
     b9c:	48 ec       	ldi	r20, 0xC8	; 200
     b9e:	52 e4       	ldi	r21, 0x42	; 66
     ba0:	0e 94 30 12 	call	0x2460	; 0x2460 <__divsf3>
     ba4:	6f a3       	std	Y+39, r22	; 0x27
     ba6:	78 a7       	std	Y+40, r23	; 0x28
     ba8:	89 a7       	std	Y+41, r24	; 0x29
     baa:	9a a7       	std	Y+42, r25	; 0x2a
     bac:	c1 01       	movw	r24, r2
     bae:	37 fc       	sbrc	r3, 7
     bb0:	51 c2       	rjmp	.+1186   	; 0x1054 <seqDoublePingPongFunc+0x508>
     bb2:	9c 01       	movw	r18, r24
     bb4:	35 95       	asr	r19
     bb6:	27 95       	ror	r18
     bb8:	38 87       	std	Y+8, r19	; 0x08
     bba:	2f 83       	std	Y+7, r18	; 0x07
     bbc:	37 fd       	sbrc	r19, 7
     bbe:	8f c1       	rjmp	.+798    	; 0xede <seqDoublePingPongFunc+0x392>
     bc0:	90 91 c6 03 	lds	r25, 0x03C6	; 0x8003c6 <led_dir.1904>
     bc4:	9e 83       	std	Y+6, r25	; 0x06
     bc6:	00 91 c1 03 	lds	r16, 0x03C1	; 0x8003c1 <color_i.1905>
     bca:	10 e0       	ldi	r17, 0x00	; 0
     bcc:	c8 01       	movw	r24, r16
     bce:	01 96       	adiw	r24, 0x01	; 1
     bd0:	60 91 42 01 	lds	r22, 0x0142	; 0x800142 <numColors>
     bd4:	70 e0       	ldi	r23, 0x00	; 0
     bd6:	0e 94 85 14 	call	0x290a	; 0x290a <__divmodhi4>
     bda:	fc 01       	movw	r30, r24
     bdc:	ee 0f       	add	r30, r30
     bde:	ff 1f       	adc	r31, r31
     be0:	ee 0f       	add	r30, r30
     be2:	ff 1f       	adc	r31, r31
     be4:	ee 5f       	subi	r30, 0xFE	; 254
     be6:	fe 4f       	sbci	r31, 0xFE	; 254
     be8:	c0 80       	ld	r12, Z
     bea:	d1 80       	ldd	r13, Z+1	; 0x01
     bec:	e2 80       	ldd	r14, Z+2	; 0x02
     bee:	f3 80       	ldd	r15, Z+3	; 0x03
     bf0:	c7 01       	movw	r24, r14
     bf2:	b6 01       	movw	r22, r12
     bf4:	77 27       	eor	r23, r23
     bf6:	88 27       	eor	r24, r24
     bf8:	99 27       	eor	r25, r25
     bfa:	0e 94 d1 12 	call	0x25a2	; 0x25a2 <__floatunsisf>
     bfe:	69 87       	std	Y+9, r22	; 0x09
     c00:	7a 87       	std	Y+10, r23	; 0x0a
     c02:	8b 87       	std	Y+11, r24	; 0x0b
     c04:	9c 87       	std	Y+12, r25	; 0x0c
     c06:	00 0f       	add	r16, r16
     c08:	11 1f       	adc	r17, r17
     c0a:	00 0f       	add	r16, r16
     c0c:	11 1f       	adc	r17, r17
     c0e:	f8 01       	movw	r30, r16
     c10:	ee 5f       	subi	r30, 0xFE	; 254
     c12:	fe 4f       	sbci	r31, 0xFE	; 254
     c14:	80 80       	ld	r8, Z
     c16:	91 80       	ldd	r9, Z+1	; 0x01
     c18:	a2 80       	ldd	r10, Z+2	; 0x02
     c1a:	b3 80       	ldd	r11, Z+3	; 0x03
     c1c:	c5 01       	movw	r24, r10
     c1e:	b4 01       	movw	r22, r8
     c20:	77 27       	eor	r23, r23
     c22:	88 27       	eor	r24, r24
     c24:	99 27       	eor	r25, r25
     c26:	0e 94 d1 12 	call	0x25a2	; 0x25a2 <__floatunsisf>
     c2a:	6d 87       	std	Y+13, r22	; 0x0d
     c2c:	7e 87       	std	Y+14, r23	; 0x0e
     c2e:	8f 87       	std	Y+15, r24	; 0x0f
     c30:	98 8b       	std	Y+16, r25	; 0x10
     c32:	6d 2d       	mov	r22, r13
     c34:	70 e0       	ldi	r23, 0x00	; 0
     c36:	80 e0       	ldi	r24, 0x00	; 0
     c38:	90 e0       	ldi	r25, 0x00	; 0
     c3a:	0e 94 d1 12 	call	0x25a2	; 0x25a2 <__floatunsisf>
     c3e:	69 8b       	std	Y+17, r22	; 0x11
     c40:	7a 8b       	std	Y+18, r23	; 0x12
     c42:	8b 8b       	std	Y+19, r24	; 0x13
     c44:	9c 8b       	std	Y+20, r25	; 0x14
     c46:	69 2d       	mov	r22, r9
     c48:	70 e0       	ldi	r23, 0x00	; 0
     c4a:	80 e0       	ldi	r24, 0x00	; 0
     c4c:	90 e0       	ldi	r25, 0x00	; 0
     c4e:	0e 94 d1 12 	call	0x25a2	; 0x25a2 <__floatunsisf>
     c52:	6d 8b       	std	Y+21, r22	; 0x15
     c54:	7e 8b       	std	Y+22, r23	; 0x16
     c56:	8f 8b       	std	Y+23, r24	; 0x17
     c58:	98 8f       	std	Y+24, r25	; 0x18
     c5a:	6e 2d       	mov	r22, r14
     c5c:	70 e0       	ldi	r23, 0x00	; 0
     c5e:	80 e0       	ldi	r24, 0x00	; 0
     c60:	90 e0       	ldi	r25, 0x00	; 0
     c62:	0e 94 d1 12 	call	0x25a2	; 0x25a2 <__floatunsisf>
     c66:	69 8f       	std	Y+25, r22	; 0x19
     c68:	7a 8f       	std	Y+26, r23	; 0x1a
     c6a:	8b 8f       	std	Y+27, r24	; 0x1b
     c6c:	9c 8f       	std	Y+28, r25	; 0x1c
     c6e:	6a 2d       	mov	r22, r10
     c70:	70 e0       	ldi	r23, 0x00	; 0
     c72:	80 e0       	ldi	r24, 0x00	; 0
     c74:	90 e0       	ldi	r25, 0x00	; 0
     c76:	0e 94 d1 12 	call	0x25a2	; 0x25a2 <__floatunsisf>
     c7a:	6d 8f       	std	Y+29, r22	; 0x1d
     c7c:	7e 8f       	std	Y+30, r23	; 0x1e
     c7e:	8f 8f       	std	Y+31, r24	; 0x1f
     c80:	98 a3       	std	Y+32, r25	; 0x20
     c82:	a6 2d       	mov	r26, r6
     c84:	b0 e0       	ldi	r27, 0x00	; 0
     c86:	be a3       	std	Y+38, r27	; 0x26
     c88:	ad a3       	std	Y+37, r26	; 0x25
     c8a:	80 91 c2 03 	lds	r24, 0x03C2	; 0x8003c2 <pos.1903>
     c8e:	90 91 c3 03 	lds	r25, 0x03C3	; 0x8003c3 <pos.1903+0x1>
     c92:	a0 91 c4 03 	lds	r26, 0x03C4	; 0x8003c4 <pos.1903+0x2>
     c96:	b0 91 c5 03 	lds	r27, 0x03C5	; 0x8003c5 <pos.1903+0x3>
     c9a:	8a 83       	std	Y+2, r24	; 0x02
     c9c:	9b 83       	std	Y+3, r25	; 0x03
     c9e:	ac 83       	std	Y+4, r26	; 0x04
     ca0:	bd 83       	std	Y+5, r27	; 0x05
     ca2:	07 2d       	mov	r16, r7
     ca4:	19 81       	ldd	r17, Y+1	; 0x01
     ca6:	91 e0       	ldi	r25, 0x01	; 1
     ca8:	29 1a       	sub	r2, r25
     caa:	90 ec       	ldi	r25, 0xC0	; 192
     cac:	39 0a       	sbc	r3, r25
     cae:	22 0c       	add	r2, r2
     cb0:	33 1c       	adc	r3, r3
     cb2:	22 0c       	add	r2, r2
     cb4:	33 1c       	adc	r3, r3
     cb6:	20 0e       	add	r2, r16
     cb8:	31 1e       	adc	r3, r17
     cba:	1c a6       	std	Y+44, r1	; 0x2c
     cbc:	1b a6       	std	Y+43, r1	; 0x2b
     cbe:	8d a1       	ldd	r24, Y+37	; 0x25
     cc0:	9e a1       	ldd	r25, Y+38	; 0x26
     cc2:	09 2e       	mov	r0, r25
     cc4:	00 0c       	add	r0, r0
     cc6:	aa 0b       	sbc	r26, r26
     cc8:	bb 0b       	sbc	r27, r27
     cca:	89 a3       	std	Y+33, r24	; 0x21
     ccc:	9a a3       	std	Y+34, r25	; 0x22
     cce:	ab a3       	std	Y+35, r26	; 0x23
     cd0:	bc a3       	std	Y+36, r27	; 0x24
     cd2:	bc c0       	rjmp	.+376    	; 0xe4c <seqDoublePingPongFunc+0x300>
     cd4:	ab a5       	ldd	r26, Y+43	; 0x2b
     cd6:	bc a5       	ldd	r27, Y+44	; 0x2c
     cd8:	bd 01       	movw	r22, r26
     cda:	bb 0f       	add	r27, r27
     cdc:	88 0b       	sbc	r24, r24
     cde:	99 0b       	sbc	r25, r25
     ce0:	0e 94 d3 12 	call	0x25a6	; 0x25a6 <__floatsisf>
     ce4:	6b 01       	movw	r12, r22
     ce6:	7c 01       	movw	r14, r24
     ce8:	2a 81       	ldd	r18, Y+2	; 0x02
     cea:	3b 81       	ldd	r19, Y+3	; 0x03
     cec:	4c 81       	ldd	r20, Y+4	; 0x04
     cee:	5d 81       	ldd	r21, Y+5	; 0x05
     cf0:	0e 94 2b 12 	call	0x2456	; 0x2456 <__cmpsf2>
     cf4:	87 fd       	sbrc	r24, 7
     cf6:	df c0       	rjmp	.+446    	; 0xeb6 <seqDoublePingPongFunc+0x36a>
     cf8:	69 a1       	ldd	r22, Y+33	; 0x21
     cfa:	7a a1       	ldd	r23, Y+34	; 0x22
     cfc:	8b a1       	ldd	r24, Y+35	; 0x23
     cfe:	9c a1       	ldd	r25, Y+36	; 0x24
     d00:	0e 94 d3 12 	call	0x25a6	; 0x25a6 <__floatsisf>
     d04:	4b 01       	movw	r8, r22
     d06:	5c 01       	movw	r10, r24
     d08:	2a 81       	ldd	r18, Y+2	; 0x02
     d0a:	3b 81       	ldd	r19, Y+3	; 0x03
     d0c:	4c 81       	ldd	r20, Y+4	; 0x04
     d0e:	5d 81       	ldd	r21, Y+5	; 0x05
     d10:	0e 94 bf 11 	call	0x237e	; 0x237e <__addsf3>
     d14:	9b 01       	movw	r18, r22
     d16:	ac 01       	movw	r20, r24
     d18:	c7 01       	movw	r24, r14
     d1a:	b6 01       	movw	r22, r12
     d1c:	0e 94 2b 12 	call	0x2456	; 0x2456 <__cmpsf2>
     d20:	87 ff       	sbrs	r24, 7
     d22:	d3 c0       	rjmp	.+422    	; 0xeca <seqDoublePingPongFunc+0x37e>
     d24:	2a 81       	ldd	r18, Y+2	; 0x02
     d26:	3b 81       	ldd	r19, Y+3	; 0x03
     d28:	4c 81       	ldd	r20, Y+4	; 0x04
     d2a:	5d 81       	ldd	r21, Y+5	; 0x05
     d2c:	c7 01       	movw	r24, r14
     d2e:	b6 01       	movw	r22, r12
     d30:	0e 94 be 11 	call	0x237c	; 0x237c <__subsf3>
     d34:	a5 01       	movw	r20, r10
     d36:	94 01       	movw	r18, r8
     d38:	0e 94 30 12 	call	0x2460	; 0x2460 <__divsf3>
     d3c:	9b 01       	movw	r18, r22
     d3e:	ac 01       	movw	r20, r24
     d40:	60 e0       	ldi	r22, 0x00	; 0
     d42:	70 e0       	ldi	r23, 0x00	; 0
     d44:	80 e8       	ldi	r24, 0x80	; 128
     d46:	9f e3       	ldi	r25, 0x3F	; 63
     d48:	0e 94 be 11 	call	0x237c	; 0x237c <__subsf3>
     d4c:	6b 01       	movw	r12, r22
     d4e:	7c 01       	movw	r14, r24
     d50:	9b 01       	movw	r18, r22
     d52:	ac 01       	movw	r20, r24
     d54:	60 e0       	ldi	r22, 0x00	; 0
     d56:	70 e0       	ldi	r23, 0x00	; 0
     d58:	80 e8       	ldi	r24, 0x80	; 128
     d5a:	9f e3       	ldi	r25, 0x3F	; 63
     d5c:	0e 94 be 11 	call	0x237c	; 0x237c <__subsf3>
     d60:	4b 01       	movw	r8, r22
     d62:	5c 01       	movw	r10, r24
     d64:	29 85       	ldd	r18, Y+9	; 0x09
     d66:	3a 85       	ldd	r19, Y+10	; 0x0a
     d68:	4b 85       	ldd	r20, Y+11	; 0x0b
     d6a:	5c 85       	ldd	r21, Y+12	; 0x0c
     d6c:	c7 01       	movw	r24, r14
     d6e:	b6 01       	movw	r22, r12
     d70:	0e 94 88 13 	call	0x2710	; 0x2710 <__mulsf3>
     d74:	2b 01       	movw	r4, r22
     d76:	3c 01       	movw	r6, r24
     d78:	a5 01       	movw	r20, r10
     d7a:	94 01       	movw	r18, r8
     d7c:	6d 85       	ldd	r22, Y+13	; 0x0d
     d7e:	7e 85       	ldd	r23, Y+14	; 0x0e
     d80:	8f 85       	ldd	r24, Y+15	; 0x0f
     d82:	98 89       	ldd	r25, Y+16	; 0x10
     d84:	0e 94 88 13 	call	0x2710	; 0x2710 <__mulsf3>
     d88:	9b 01       	movw	r18, r22
     d8a:	ac 01       	movw	r20, r24
     d8c:	c3 01       	movw	r24, r6
     d8e:	b2 01       	movw	r22, r4
     d90:	0e 94 bf 11 	call	0x237e	; 0x237e <__addsf3>
     d94:	0e 94 a2 12 	call	0x2544	; 0x2544 <__fixunssfsi>
     d98:	69 83       	std	Y+1, r22	; 0x01
     d9a:	d8 01       	movw	r26, r16
     d9c:	11 96       	adiw	r26, 0x01	; 1
     d9e:	6c 93       	st	X, r22
     da0:	29 89       	ldd	r18, Y+17	; 0x11
     da2:	3a 89       	ldd	r19, Y+18	; 0x12
     da4:	4b 89       	ldd	r20, Y+19	; 0x13
     da6:	5c 89       	ldd	r21, Y+20	; 0x14
     da8:	c7 01       	movw	r24, r14
     daa:	b6 01       	movw	r22, r12
     dac:	0e 94 88 13 	call	0x2710	; 0x2710 <__mulsf3>
     db0:	2b 01       	movw	r4, r22
     db2:	3c 01       	movw	r6, r24
     db4:	a5 01       	movw	r20, r10
     db6:	94 01       	movw	r18, r8
     db8:	6d 89       	ldd	r22, Y+21	; 0x15
     dba:	7e 89       	ldd	r23, Y+22	; 0x16
     dbc:	8f 89       	ldd	r24, Y+23	; 0x17
     dbe:	98 8d       	ldd	r25, Y+24	; 0x18
     dc0:	0e 94 88 13 	call	0x2710	; 0x2710 <__mulsf3>
     dc4:	9b 01       	movw	r18, r22
     dc6:	ac 01       	movw	r20, r24
     dc8:	c3 01       	movw	r24, r6
     dca:	b2 01       	movw	r22, r4
     dcc:	0e 94 bf 11 	call	0x237e	; 0x237e <__addsf3>
     dd0:	0e 94 a2 12 	call	0x2544	; 0x2544 <__fixunssfsi>
     dd4:	76 2e       	mov	r7, r22
     dd6:	d8 01       	movw	r26, r16
     dd8:	12 96       	adiw	r26, 0x02	; 2
     dda:	6c 93       	st	X, r22
     ddc:	29 8d       	ldd	r18, Y+25	; 0x19
     dde:	3a 8d       	ldd	r19, Y+26	; 0x1a
     de0:	4b 8d       	ldd	r20, Y+27	; 0x1b
     de2:	5c 8d       	ldd	r21, Y+28	; 0x1c
     de4:	c7 01       	movw	r24, r14
     de6:	b6 01       	movw	r22, r12
     de8:	0e 94 88 13 	call	0x2710	; 0x2710 <__mulsf3>
     dec:	6b 01       	movw	r12, r22
     dee:	7c 01       	movw	r14, r24
     df0:	a5 01       	movw	r20, r10
     df2:	94 01       	movw	r18, r8
     df4:	6d 8d       	ldd	r22, Y+29	; 0x1d
     df6:	7e 8d       	ldd	r23, Y+30	; 0x1e
     df8:	8f 8d       	ldd	r24, Y+31	; 0x1f
     dfa:	98 a1       	ldd	r25, Y+32	; 0x20
     dfc:	0e 94 88 13 	call	0x2710	; 0x2710 <__mulsf3>
     e00:	9b 01       	movw	r18, r22
     e02:	ac 01       	movw	r20, r24
     e04:	c7 01       	movw	r24, r14
     e06:	b6 01       	movw	r22, r12
     e08:	0e 94 bf 11 	call	0x237e	; 0x237e <__addsf3>
     e0c:	0e 94 a2 12 	call	0x2544	; 0x2544 <__fixunssfsi>
     e10:	f8 01       	movw	r30, r16
     e12:	60 83       	st	Z, r22
     e14:	e9 81       	ldd	r30, Y+1	; 0x01
     e16:	d1 01       	movw	r26, r2
     e18:	11 96       	adiw	r26, 0x01	; 1
     e1a:	ec 93       	st	X, r30
     e1c:	11 97       	sbiw	r26, 0x01	; 1
     e1e:	12 96       	adiw	r26, 0x02	; 2
     e20:	7c 92       	st	X, r7
     e22:	12 97       	sbiw	r26, 0x02	; 2
     e24:	6c 93       	st	X, r22
     e26:	2b a5       	ldd	r18, Y+43	; 0x2b
     e28:	3c a5       	ldd	r19, Y+44	; 0x2c
     e2a:	2f 5f       	subi	r18, 0xFF	; 255
     e2c:	3f 4f       	sbci	r19, 0xFF	; 255
     e2e:	3c a7       	std	Y+44, r19	; 0x2c
     e30:	2b a7       	std	Y+43, r18	; 0x2b
     e32:	0c 5f       	subi	r16, 0xFC	; 252
     e34:	1f 4f       	sbci	r17, 0xFF	; 255
     e36:	34 e0       	ldi	r19, 0x04	; 4
     e38:	23 1a       	sub	r2, r19
     e3a:	31 08       	sbc	r3, r1
     e3c:	8f 81       	ldd	r24, Y+7	; 0x07
     e3e:	98 85       	ldd	r25, Y+8	; 0x08
     e40:	ab a5       	ldd	r26, Y+43	; 0x2b
     e42:	bc a5       	ldd	r27, Y+44	; 0x2c
     e44:	8a 17       	cp	r24, r26
     e46:	9b 07       	cpc	r25, r27
     e48:	0c f4       	brge	.+2      	; 0xe4c <seqDoublePingPongFunc+0x300>
     e4a:	5c c0       	rjmp	.+184    	; 0xf04 <seqDoublePingPongFunc+0x3b8>
     e4c:	9e 81       	ldd	r25, Y+6	; 0x06
     e4e:	99 23       	and	r25, r25
     e50:	09 f4       	brne	.+2      	; 0xe54 <seqDoublePingPongFunc+0x308>
     e52:	40 cf       	rjmp	.-384    	; 0xcd4 <seqDoublePingPongFunc+0x188>
     e54:	eb a5       	ldd	r30, Y+43	; 0x2b
     e56:	fc a5       	ldd	r31, Y+44	; 0x2c
     e58:	bf 01       	movw	r22, r30
     e5a:	ff 0f       	add	r31, r31
     e5c:	88 0b       	sbc	r24, r24
     e5e:	99 0b       	sbc	r25, r25
     e60:	0e 94 d3 12 	call	0x25a6	; 0x25a6 <__floatsisf>
     e64:	6b 01       	movw	r12, r22
     e66:	7c 01       	movw	r14, r24
     e68:	2a 81       	ldd	r18, Y+2	; 0x02
     e6a:	3b 81       	ldd	r19, Y+3	; 0x03
     e6c:	4c 81       	ldd	r20, Y+4	; 0x04
     e6e:	5d 81       	ldd	r21, Y+5	; 0x05
     e70:	0e 94 83 13 	call	0x2706	; 0x2706 <__gesf2>
     e74:	87 ff       	sbrs	r24, 7
     e76:	1f c0       	rjmp	.+62     	; 0xeb6 <seqDoublePingPongFunc+0x36a>
     e78:	69 a1       	ldd	r22, Y+33	; 0x21
     e7a:	7a a1       	ldd	r23, Y+34	; 0x22
     e7c:	8b a1       	ldd	r24, Y+35	; 0x23
     e7e:	9c a1       	ldd	r25, Y+36	; 0x24
     e80:	0e 94 d3 12 	call	0x25a6	; 0x25a6 <__floatsisf>
     e84:	4b 01       	movw	r8, r22
     e86:	5c 01       	movw	r10, r24
     e88:	9b 01       	movw	r18, r22
     e8a:	ac 01       	movw	r20, r24
     e8c:	6a 81       	ldd	r22, Y+2	; 0x02
     e8e:	7b 81       	ldd	r23, Y+3	; 0x03
     e90:	8c 81       	ldd	r24, Y+4	; 0x04
     e92:	9d 81       	ldd	r25, Y+5	; 0x05
     e94:	0e 94 be 11 	call	0x237c	; 0x237c <__subsf3>
     e98:	9b 01       	movw	r18, r22
     e9a:	ac 01       	movw	r20, r24
     e9c:	c7 01       	movw	r24, r14
     e9e:	b6 01       	movw	r22, r12
     ea0:	0e 94 83 13 	call	0x2706	; 0x2706 <__gesf2>
     ea4:	87 fd       	sbrc	r24, 7
     ea6:	11 c0       	rjmp	.+34     	; 0xeca <seqDoublePingPongFunc+0x37e>
     ea8:	a7 01       	movw	r20, r14
     eaa:	96 01       	movw	r18, r12
     eac:	6a 81       	ldd	r22, Y+2	; 0x02
     eae:	7b 81       	ldd	r23, Y+3	; 0x03
     eb0:	8c 81       	ldd	r24, Y+4	; 0x04
     eb2:	9d 81       	ldd	r25, Y+5	; 0x05
     eb4:	3d cf       	rjmp	.-390    	; 0xd30 <seqDoublePingPongFunc+0x1e4>
     eb6:	81 2c       	mov	r8, r1
     eb8:	91 2c       	mov	r9, r1
     eba:	54 01       	movw	r10, r8
     ebc:	c1 2c       	mov	r12, r1
     ebe:	d1 2c       	mov	r13, r1
     ec0:	90 e8       	ldi	r25, 0x80	; 128
     ec2:	e9 2e       	mov	r14, r25
     ec4:	9f e3       	ldi	r25, 0x3F	; 63
     ec6:	f9 2e       	mov	r15, r25
     ec8:	4d cf       	rjmp	.-358    	; 0xd64 <seqDoublePingPongFunc+0x218>
     eca:	81 2c       	mov	r8, r1
     ecc:	91 2c       	mov	r9, r1
     ece:	80 e8       	ldi	r24, 0x80	; 128
     ed0:	a8 2e       	mov	r10, r24
     ed2:	8f e3       	ldi	r24, 0x3F	; 63
     ed4:	b8 2e       	mov	r11, r24
     ed6:	c1 2c       	mov	r12, r1
     ed8:	d1 2c       	mov	r13, r1
     eda:	76 01       	movw	r14, r12
     edc:	43 cf       	rjmp	.-378    	; 0xd64 <seqDoublePingPongFunc+0x218>
     ede:	30 91 c6 03 	lds	r19, 0x03C6	; 0x8003c6 <led_dir.1904>
     ee2:	3e 83       	std	Y+6, r19	; 0x06
     ee4:	86 2d       	mov	r24, r6
     ee6:	90 e0       	ldi	r25, 0x00	; 0
     ee8:	9e a3       	std	Y+38, r25	; 0x26
     eea:	8d a3       	std	Y+37, r24	; 0x25
     eec:	80 91 c2 03 	lds	r24, 0x03C2	; 0x8003c2 <pos.1903>
     ef0:	90 91 c3 03 	lds	r25, 0x03C3	; 0x8003c3 <pos.1903+0x1>
     ef4:	a0 91 c4 03 	lds	r26, 0x03C4	; 0x8003c4 <pos.1903+0x2>
     ef8:	b0 91 c5 03 	lds	r27, 0x03C5	; 0x8003c5 <pos.1903+0x3>
     efc:	8a 83       	std	Y+2, r24	; 0x02
     efe:	9b 83       	std	Y+3, r25	; 0x03
     f00:	ac 83       	std	Y+4, r26	; 0x04
     f02:	bd 83       	std	Y+5, r27	; 0x05
     f04:	be 81       	ldd	r27, Y+6	; 0x06
     f06:	b1 11       	cpse	r27, r1
     f08:	7a c0       	rjmp	.+244    	; 0xffe <seqDoublePingPongFunc+0x4b2>
     f0a:	2a 81       	ldd	r18, Y+2	; 0x02
     f0c:	3b 81       	ldd	r19, Y+3	; 0x03
     f0e:	4c 81       	ldd	r20, Y+4	; 0x04
     f10:	5d 81       	ldd	r21, Y+5	; 0x05
     f12:	6f a1       	ldd	r22, Y+39	; 0x27
     f14:	78 a5       	ldd	r23, Y+40	; 0x28
     f16:	89 a5       	ldd	r24, Y+41	; 0x29
     f18:	9a a5       	ldd	r25, Y+42	; 0x2a
     f1a:	0e 94 bf 11 	call	0x237e	; 0x237e <__addsf3>
     f1e:	6b 01       	movw	r12, r22
     f20:	7c 01       	movw	r14, r24
     f22:	60 93 c2 03 	sts	0x03C2, r22	; 0x8003c2 <pos.1903>
     f26:	70 93 c3 03 	sts	0x03C3, r23	; 0x8003c3 <pos.1903+0x1>
     f2a:	80 93 c4 03 	sts	0x03C4, r24	; 0x8003c4 <pos.1903+0x2>
     f2e:	90 93 c5 03 	sts	0x03C5, r25	; 0x8003c5 <pos.1903+0x3>
     f32:	6f 81       	ldd	r22, Y+7	; 0x07
     f34:	78 85       	ldd	r23, Y+8	; 0x08
     f36:	6f 5f       	subi	r22, 0xFF	; 255
     f38:	7f 4f       	sbci	r23, 0xFF	; 255
     f3a:	0d a1       	ldd	r16, Y+37	; 0x25
     f3c:	1e a1       	ldd	r17, Y+38	; 0x26
     f3e:	06 0f       	add	r16, r22
     f40:	17 1f       	adc	r17, r23
     f42:	b8 01       	movw	r22, r16
     f44:	01 2e       	mov	r0, r17
     f46:	00 0c       	add	r0, r0
     f48:	88 0b       	sbc	r24, r24
     f4a:	99 0b       	sbc	r25, r25
     f4c:	0e 94 d3 12 	call	0x25a6	; 0x25a6 <__floatsisf>
     f50:	a7 01       	movw	r20, r14
     f52:	96 01       	movw	r18, r12
     f54:	0e 94 2b 12 	call	0x2456	; 0x2456 <__cmpsf2>
     f58:	18 16       	cp	r1, r24
     f5a:	8c f4       	brge	.+34     	; 0xf7e <seqDoublePingPongFunc+0x432>
     f5c:	6d a1       	ldd	r22, Y+37	; 0x25
     f5e:	7e a1       	ldd	r23, Y+38	; 0x26
     f60:	71 95       	neg	r23
     f62:	61 95       	neg	r22
     f64:	71 09       	sbc	r23, r1
     f66:	07 2e       	mov	r0, r23
     f68:	00 0c       	add	r0, r0
     f6a:	88 0b       	sbc	r24, r24
     f6c:	99 0b       	sbc	r25, r25
     f6e:	0e 94 d3 12 	call	0x25a6	; 0x25a6 <__floatsisf>
     f72:	a7 01       	movw	r20, r14
     f74:	96 01       	movw	r18, r12
     f76:	0e 94 83 13 	call	0x2706	; 0x2706 <__gesf2>
     f7a:	18 16       	cp	r1, r24
     f7c:	3c f5       	brge	.+78     	; 0xfcc <seqDoublePingPongFunc+0x480>
     f7e:	80 91 c1 03 	lds	r24, 0x03C1	; 0x8003c1 <color_i.1905>
     f82:	90 e0       	ldi	r25, 0x00	; 0
     f84:	01 96       	adiw	r24, 0x01	; 1
     f86:	60 91 42 01 	lds	r22, 0x0142	; 0x800142 <numColors>
     f8a:	70 e0       	ldi	r23, 0x00	; 0
     f8c:	0e 94 85 14 	call	0x290a	; 0x290a <__divmodhi4>
     f90:	80 93 c1 03 	sts	0x03C1, r24	; 0x8003c1 <color_i.1905>
     f94:	81 e0       	ldi	r24, 0x01	; 1
     f96:	ee 81       	ldd	r30, Y+6	; 0x06
     f98:	e1 30       	cpi	r30, 0x01	; 1
     f9a:	09 f4       	brne	.+2      	; 0xf9e <seqDoublePingPongFunc+0x452>
     f9c:	59 c0       	rjmp	.+178    	; 0x1050 <seqDoublePingPongFunc+0x504>
     f9e:	80 93 c6 03 	sts	0x03C6, r24	; 0x8003c6 <led_dir.1904>
     fa2:	fe 81       	ldd	r31, Y+6	; 0x06
     fa4:	f1 30       	cpi	r31, 0x01	; 1
     fa6:	09 f4       	brne	.+2      	; 0xfaa <seqDoublePingPongFunc+0x45e>
     fa8:	3f c0       	rjmp	.+126    	; 0x1028 <seqDoublePingPongFunc+0x4dc>
     faa:	b8 01       	movw	r22, r16
     fac:	61 50       	subi	r22, 0x01	; 1
     fae:	71 09       	sbc	r23, r1
     fb0:	07 2e       	mov	r0, r23
     fb2:	00 0c       	add	r0, r0
     fb4:	88 0b       	sbc	r24, r24
     fb6:	99 0b       	sbc	r25, r25
     fb8:	0e 94 d3 12 	call	0x25a6	; 0x25a6 <__floatsisf>
     fbc:	60 93 c2 03 	sts	0x03C2, r22	; 0x8003c2 <pos.1903>
     fc0:	70 93 c3 03 	sts	0x03C3, r23	; 0x8003c3 <pos.1903+0x1>
     fc4:	80 93 c4 03 	sts	0x03C4, r24	; 0x8003c4 <pos.1903+0x2>
     fc8:	90 93 c5 03 	sts	0x03C5, r25	; 0x8003c5 <pos.1903+0x3>
     fcc:	ac 96       	adiw	r28, 0x2c	; 44
     fce:	0f b6       	in	r0, 0x3f	; 63
     fd0:	f8 94       	cli
     fd2:	de bf       	out	0x3e, r29	; 62
     fd4:	0f be       	out	0x3f, r0	; 63
     fd6:	cd bf       	out	0x3d, r28	; 61
     fd8:	df 91       	pop	r29
     fda:	cf 91       	pop	r28
     fdc:	1f 91       	pop	r17
     fde:	0f 91       	pop	r16
     fe0:	ff 90       	pop	r15
     fe2:	ef 90       	pop	r14
     fe4:	df 90       	pop	r13
     fe6:	cf 90       	pop	r12
     fe8:	bf 90       	pop	r11
     fea:	af 90       	pop	r10
     fec:	9f 90       	pop	r9
     fee:	8f 90       	pop	r8
     ff0:	7f 90       	pop	r7
     ff2:	6f 90       	pop	r6
     ff4:	5f 90       	pop	r5
     ff6:	4f 90       	pop	r4
     ff8:	3f 90       	pop	r3
     ffa:	2f 90       	pop	r2
     ffc:	08 95       	ret
     ffe:	2f a1       	ldd	r18, Y+39	; 0x27
    1000:	38 a5       	ldd	r19, Y+40	; 0x28
    1002:	49 a5       	ldd	r20, Y+41	; 0x29
    1004:	5a a5       	ldd	r21, Y+42	; 0x2a
    1006:	6a 81       	ldd	r22, Y+2	; 0x02
    1008:	7b 81       	ldd	r23, Y+3	; 0x03
    100a:	8c 81       	ldd	r24, Y+4	; 0x04
    100c:	9d 81       	ldd	r25, Y+5	; 0x05
    100e:	0e 94 be 11 	call	0x237c	; 0x237c <__subsf3>
    1012:	6b 01       	movw	r12, r22
    1014:	7c 01       	movw	r14, r24
    1016:	60 93 c2 03 	sts	0x03C2, r22	; 0x8003c2 <pos.1903>
    101a:	70 93 c3 03 	sts	0x03C3, r23	; 0x8003c3 <pos.1903+0x1>
    101e:	80 93 c4 03 	sts	0x03C4, r24	; 0x8003c4 <pos.1903+0x2>
    1022:	90 93 c5 03 	sts	0x03C5, r25	; 0x8003c5 <pos.1903+0x3>
    1026:	85 cf       	rjmp	.-246    	; 0xf32 <seqDoublePingPongFunc+0x3e6>
    1028:	6d a1       	ldd	r22, Y+37	; 0x25
    102a:	7e a1       	ldd	r23, Y+38	; 0x26
    102c:	71 95       	neg	r23
    102e:	61 95       	neg	r22
    1030:	71 09       	sbc	r23, r1
    1032:	07 2e       	mov	r0, r23
    1034:	00 0c       	add	r0, r0
    1036:	88 0b       	sbc	r24, r24
    1038:	99 0b       	sbc	r25, r25
    103a:	0e 94 d3 12 	call	0x25a6	; 0x25a6 <__floatsisf>
    103e:	60 93 c2 03 	sts	0x03C2, r22	; 0x8003c2 <pos.1903>
    1042:	70 93 c3 03 	sts	0x03C3, r23	; 0x8003c3 <pos.1903+0x1>
    1046:	80 93 c4 03 	sts	0x03C4, r24	; 0x8003c4 <pos.1903+0x2>
    104a:	90 93 c5 03 	sts	0x03C5, r25	; 0x8003c5 <pos.1903+0x3>
    104e:	be cf       	rjmp	.-132    	; 0xfcc <seqDoublePingPongFunc+0x480>
    1050:	80 e0       	ldi	r24, 0x00	; 0
    1052:	a5 cf       	rjmp	.-182    	; 0xf9e <seqDoublePingPongFunc+0x452>
    1054:	01 96       	adiw	r24, 0x01	; 1
    1056:	ad cd       	rjmp	.-1190   	; 0xbb2 <seqDoublePingPongFunc+0x66>

00001058 <seqFadeFunc>:
    1058:	2f 92       	push	r2
    105a:	3f 92       	push	r3
    105c:	4f 92       	push	r4
    105e:	5f 92       	push	r5
    1060:	6f 92       	push	r6
    1062:	7f 92       	push	r7
    1064:	8f 92       	push	r8
    1066:	9f 92       	push	r9
    1068:	af 92       	push	r10
    106a:	bf 92       	push	r11
    106c:	cf 92       	push	r12
    106e:	df 92       	push	r13
    1070:	ef 92       	push	r14
    1072:	ff 92       	push	r15
    1074:	0f 93       	push	r16
    1076:	1f 93       	push	r17
    1078:	cf 93       	push	r28
    107a:	df 93       	push	r29
    107c:	1c 01       	movw	r2, r24
    107e:	eb 01       	movw	r28, r22
    1080:	60 91 45 01 	lds	r22, 0x0145	; 0x800145 <seqSpeed>
    1084:	70 e0       	ldi	r23, 0x00	; 0
    1086:	80 e0       	ldi	r24, 0x00	; 0
    1088:	90 e0       	ldi	r25, 0x00	; 0
    108a:	0e 94 d3 12 	call	0x25a6	; 0x25a6 <__floatsisf>
    108e:	20 e0       	ldi	r18, 0x00	; 0
    1090:	30 e4       	ldi	r19, 0x40	; 64
    1092:	4c e9       	ldi	r20, 0x9C	; 156
    1094:	55 e4       	ldi	r21, 0x45	; 69
    1096:	0e 94 30 12 	call	0x2460	; 0x2460 <__divsf3>
    109a:	2b 01       	movw	r4, r22
    109c:	3c 01       	movw	r6, r24
    109e:	1c 16       	cp	r1, r28
    10a0:	1d 06       	cpc	r1, r29
    10a2:	0c f0       	brlt	.+2      	; 0x10a6 <seqFadeFunc+0x4e>
    10a4:	bc c0       	rjmp	.+376    	; 0x121e <seqFadeFunc+0x1c6>
    10a6:	e0 91 cc 03 	lds	r30, 0x03CC	; 0x8003cc <color_i.1917>
    10aa:	f0 e0       	ldi	r31, 0x00	; 0
    10ac:	ee 0f       	add	r30, r30
    10ae:	ff 1f       	adc	r31, r31
    10b0:	ee 0f       	add	r30, r30
    10b2:	ff 1f       	adc	r31, r31
    10b4:	ee 5f       	subi	r30, 0xFE	; 254
    10b6:	fe 4f       	sbci	r31, 0xFE	; 254
    10b8:	80 80       	ld	r8, Z
    10ba:	91 80       	ldd	r9, Z+1	; 0x01
    10bc:	a2 80       	ldd	r10, Z+2	; 0x02
    10be:	b3 80       	ldd	r11, Z+3	; 0x03
    10c0:	c0 90 c8 03 	lds	r12, 0x03C8	; 0x8003c8 <k.1919>
    10c4:	d0 90 c9 03 	lds	r13, 0x03C9	; 0x8003c9 <k.1919+0x1>
    10c8:	e0 90 ca 03 	lds	r14, 0x03CA	; 0x8003ca <k.1919+0x2>
    10cc:	f0 90 cb 03 	lds	r15, 0x03CB	; 0x8003cb <k.1919+0x3>
    10d0:	c5 01       	movw	r24, r10
    10d2:	b4 01       	movw	r22, r8
    10d4:	77 27       	eor	r23, r23
    10d6:	88 27       	eor	r24, r24
    10d8:	99 27       	eor	r25, r25
    10da:	0e 94 d1 12 	call	0x25a2	; 0x25a2 <__floatunsisf>
    10de:	a7 01       	movw	r20, r14
    10e0:	96 01       	movw	r18, r12
    10e2:	0e 94 88 13 	call	0x2710	; 0x2710 <__mulsf3>
    10e6:	0e 94 a2 12 	call	0x2544	; 0x2544 <__fixunssfsi>
    10ea:	06 2f       	mov	r16, r22
    10ec:	69 2d       	mov	r22, r9
    10ee:	70 e0       	ldi	r23, 0x00	; 0
    10f0:	80 e0       	ldi	r24, 0x00	; 0
    10f2:	90 e0       	ldi	r25, 0x00	; 0
    10f4:	0e 94 d1 12 	call	0x25a2	; 0x25a2 <__floatunsisf>
    10f8:	a7 01       	movw	r20, r14
    10fa:	96 01       	movw	r18, r12
    10fc:	0e 94 88 13 	call	0x2710	; 0x2710 <__mulsf3>
    1100:	0e 94 a2 12 	call	0x2544	; 0x2544 <__fixunssfsi>
    1104:	16 2f       	mov	r17, r22
    1106:	6a 2d       	mov	r22, r10
    1108:	70 e0       	ldi	r23, 0x00	; 0
    110a:	80 e0       	ldi	r24, 0x00	; 0
    110c:	90 e0       	ldi	r25, 0x00	; 0
    110e:	0e 94 d1 12 	call	0x25a2	; 0x25a2 <__floatunsisf>
    1112:	a7 01       	movw	r20, r14
    1114:	96 01       	movw	r18, r12
    1116:	0e 94 88 13 	call	0x2710	; 0x2710 <__mulsf3>
    111a:	0e 94 a2 12 	call	0x2544	; 0x2544 <__fixunssfsi>
    111e:	f1 01       	movw	r30, r2
    1120:	cc 0f       	add	r28, r28
    1122:	dd 1f       	adc	r29, r29
    1124:	cc 0f       	add	r28, r28
    1126:	dd 1f       	adc	r29, r29
    1128:	c2 0d       	add	r28, r2
    112a:	d3 1d       	adc	r29, r3
    112c:	01 83       	std	Z+1, r16	; 0x01
    112e:	12 83       	std	Z+2, r17	; 0x02
    1130:	60 83       	st	Z, r22
    1132:	34 96       	adiw	r30, 0x04	; 4
    1134:	ec 17       	cp	r30, r28
    1136:	fd 07       	cpc	r31, r29
    1138:	c9 f7       	brne	.-14     	; 0x112c <seqFadeFunc+0xd4>
    113a:	c0 91 c7 03 	lds	r28, 0x03C7	; 0x8003c7 <led_dir.1918>
    113e:	c1 11       	cpse	r28, r1
    1140:	3c c0       	rjmp	.+120    	; 0x11ba <seqFadeFunc+0x162>
    1142:	a7 01       	movw	r20, r14
    1144:	96 01       	movw	r18, r12
    1146:	c3 01       	movw	r24, r6
    1148:	b2 01       	movw	r22, r4
    114a:	0e 94 bf 11 	call	0x237e	; 0x237e <__addsf3>
    114e:	6b 01       	movw	r12, r22
    1150:	7c 01       	movw	r14, r24
    1152:	60 93 c8 03 	sts	0x03C8, r22	; 0x8003c8 <k.1919>
    1156:	70 93 c9 03 	sts	0x03C9, r23	; 0x8003c9 <k.1919+0x1>
    115a:	80 93 ca 03 	sts	0x03CA, r24	; 0x8003ca <k.1919+0x2>
    115e:	90 93 cb 03 	sts	0x03CB, r25	; 0x8003cb <k.1919+0x3>
    1162:	20 e0       	ldi	r18, 0x00	; 0
    1164:	30 e0       	ldi	r19, 0x00	; 0
    1166:	40 e8       	ldi	r20, 0x80	; 128
    1168:	5f e3       	ldi	r21, 0x3F	; 63
    116a:	c7 01       	movw	r24, r14
    116c:	b6 01       	movw	r22, r12
    116e:	0e 94 83 13 	call	0x2706	; 0x2706 <__gesf2>
    1172:	87 fd       	sbrc	r24, 7
    1174:	33 c0       	rjmp	.+102    	; 0x11dc <seqFadeFunc+0x184>
    1176:	81 e0       	ldi	r24, 0x01	; 1
    1178:	80 93 c7 03 	sts	0x03C7, r24	; 0x8003c7 <led_dir.1918>
    117c:	80 e0       	ldi	r24, 0x00	; 0
    117e:	90 e0       	ldi	r25, 0x00	; 0
    1180:	a0 e8       	ldi	r26, 0x80	; 128
    1182:	bf e3       	ldi	r27, 0x3F	; 63
    1184:	80 93 c8 03 	sts	0x03C8, r24	; 0x8003c8 <k.1919>
    1188:	90 93 c9 03 	sts	0x03C9, r25	; 0x8003c9 <k.1919+0x1>
    118c:	a0 93 ca 03 	sts	0x03CA, r26	; 0x8003ca <k.1919+0x2>
    1190:	b0 93 cb 03 	sts	0x03CB, r27	; 0x8003cb <k.1919+0x3>
    1194:	df 91       	pop	r29
    1196:	cf 91       	pop	r28
    1198:	1f 91       	pop	r17
    119a:	0f 91       	pop	r16
    119c:	ff 90       	pop	r15
    119e:	ef 90       	pop	r14
    11a0:	df 90       	pop	r13
    11a2:	cf 90       	pop	r12
    11a4:	bf 90       	pop	r11
    11a6:	af 90       	pop	r10
    11a8:	9f 90       	pop	r9
    11aa:	8f 90       	pop	r8
    11ac:	7f 90       	pop	r7
    11ae:	6f 90       	pop	r6
    11b0:	5f 90       	pop	r5
    11b2:	4f 90       	pop	r4
    11b4:	3f 90       	pop	r3
    11b6:	2f 90       	pop	r2
    11b8:	08 95       	ret
    11ba:	a3 01       	movw	r20, r6
    11bc:	92 01       	movw	r18, r4
    11be:	c7 01       	movw	r24, r14
    11c0:	b6 01       	movw	r22, r12
    11c2:	0e 94 be 11 	call	0x237c	; 0x237c <__subsf3>
    11c6:	6b 01       	movw	r12, r22
    11c8:	7c 01       	movw	r14, r24
    11ca:	60 93 c8 03 	sts	0x03C8, r22	; 0x8003c8 <k.1919>
    11ce:	70 93 c9 03 	sts	0x03C9, r23	; 0x8003c9 <k.1919+0x1>
    11d2:	80 93 ca 03 	sts	0x03CA, r24	; 0x8003ca <k.1919+0x2>
    11d6:	90 93 cb 03 	sts	0x03CB, r25	; 0x8003cb <k.1919+0x3>
    11da:	c3 cf       	rjmp	.-122    	; 0x1162 <seqFadeFunc+0x10a>
    11dc:	20 e0       	ldi	r18, 0x00	; 0
    11de:	30 e0       	ldi	r19, 0x00	; 0
    11e0:	a9 01       	movw	r20, r18
    11e2:	c7 01       	movw	r24, r14
    11e4:	b6 01       	movw	r22, r12
    11e6:	0e 94 2b 12 	call	0x2456	; 0x2456 <__cmpsf2>
    11ea:	18 16       	cp	r1, r24
    11ec:	9c f2       	brlt	.-90     	; 0x1194 <seqFadeFunc+0x13c>
    11ee:	cc 23       	and	r28, r28
    11f0:	89 f2       	breq	.-94     	; 0x1194 <seqFadeFunc+0x13c>
    11f2:	80 91 cc 03 	lds	r24, 0x03CC	; 0x8003cc <color_i.1917>
    11f6:	90 e0       	ldi	r25, 0x00	; 0
    11f8:	01 96       	adiw	r24, 0x01	; 1
    11fa:	60 91 42 01 	lds	r22, 0x0142	; 0x800142 <numColors>
    11fe:	70 e0       	ldi	r23, 0x00	; 0
    1200:	0e 94 85 14 	call	0x290a	; 0x290a <__divmodhi4>
    1204:	80 93 cc 03 	sts	0x03CC, r24	; 0x8003cc <color_i.1917>
    1208:	10 92 c7 03 	sts	0x03C7, r1	; 0x8003c7 <led_dir.1918>
    120c:	10 92 c8 03 	sts	0x03C8, r1	; 0x8003c8 <k.1919>
    1210:	10 92 c9 03 	sts	0x03C9, r1	; 0x8003c9 <k.1919+0x1>
    1214:	10 92 ca 03 	sts	0x03CA, r1	; 0x8003ca <k.1919+0x2>
    1218:	10 92 cb 03 	sts	0x03CB, r1	; 0x8003cb <k.1919+0x3>
    121c:	bb cf       	rjmp	.-138    	; 0x1194 <seqFadeFunc+0x13c>
    121e:	c0 90 c8 03 	lds	r12, 0x03C8	; 0x8003c8 <k.1919>
    1222:	d0 90 c9 03 	lds	r13, 0x03C9	; 0x8003c9 <k.1919+0x1>
    1226:	e0 90 ca 03 	lds	r14, 0x03CA	; 0x8003ca <k.1919+0x2>
    122a:	f0 90 cb 03 	lds	r15, 0x03CB	; 0x8003cb <k.1919+0x3>
    122e:	85 cf       	rjmp	.-246    	; 0x113a <seqFadeFunc+0xe2>

00001230 <seqSoftSwitchFunc>:
    1230:	2f 92       	push	r2
    1232:	3f 92       	push	r3
    1234:	4f 92       	push	r4
    1236:	5f 92       	push	r5
    1238:	6f 92       	push	r6
    123a:	7f 92       	push	r7
    123c:	8f 92       	push	r8
    123e:	9f 92       	push	r9
    1240:	af 92       	push	r10
    1242:	bf 92       	push	r11
    1244:	cf 92       	push	r12
    1246:	df 92       	push	r13
    1248:	ef 92       	push	r14
    124a:	ff 92       	push	r15
    124c:	0f 93       	push	r16
    124e:	1f 93       	push	r17
    1250:	cf 93       	push	r28
    1252:	df 93       	push	r29
    1254:	cd b7       	in	r28, 0x3d	; 61
    1256:	de b7       	in	r29, 0x3e	; 62
    1258:	2f 97       	sbiw	r28, 0x0f	; 15
    125a:	0f b6       	in	r0, 0x3f	; 63
    125c:	f8 94       	cli
    125e:	de bf       	out	0x3e, r29	; 62
    1260:	0f be       	out	0x3f, r0	; 63
    1262:	cd bf       	out	0x3d, r28	; 61
    1264:	8f 87       	std	Y+15, r24	; 0x0f
    1266:	9d 87       	std	Y+13, r25	; 0x0d
    1268:	8b 01       	movw	r16, r22
    126a:	60 91 45 01 	lds	r22, 0x0145	; 0x800145 <seqSpeed>
    126e:	70 e0       	ldi	r23, 0x00	; 0
    1270:	80 e0       	ldi	r24, 0x00	; 0
    1272:	90 e0       	ldi	r25, 0x00	; 0
    1274:	0e 94 d3 12 	call	0x25a6	; 0x25a6 <__floatsisf>
    1278:	20 e0       	ldi	r18, 0x00	; 0
    127a:	30 e4       	ldi	r19, 0x40	; 64
    127c:	4c e9       	ldi	r20, 0x9C	; 156
    127e:	55 e4       	ldi	r21, 0x45	; 69
    1280:	0e 94 30 12 	call	0x2460	; 0x2460 <__divsf3>
    1284:	69 87       	std	Y+9, r22	; 0x09
    1286:	7a 87       	std	Y+10, r23	; 0x0a
    1288:	8b 87       	std	Y+11, r24	; 0x0b
    128a:	9c 87       	std	Y+12, r25	; 0x0c
    128c:	c0 90 ce 03 	lds	r12, 0x03CE	; 0x8003ce <k.1930>
    1290:	d0 90 cf 03 	lds	r13, 0x03CF	; 0x8003cf <k.1930+0x1>
    1294:	e0 90 d0 03 	lds	r14, 0x03D0	; 0x8003d0 <k.1930+0x2>
    1298:	f0 90 d1 03 	lds	r15, 0x03D1	; 0x8003d1 <k.1930+0x3>
    129c:	10 16       	cp	r1, r16
    129e:	11 06       	cpc	r1, r17
    12a0:	0c f0       	brlt	.+2      	; 0x12a4 <seqSoftSwitchFunc+0x74>
    12a2:	a8 c0       	rjmp	.+336    	; 0x13f4 <seqSoftSwitchFunc+0x1c4>
    12a4:	a7 01       	movw	r20, r14
    12a6:	96 01       	movw	r18, r12
    12a8:	60 e0       	ldi	r22, 0x00	; 0
    12aa:	70 e0       	ldi	r23, 0x00	; 0
    12ac:	80 e8       	ldi	r24, 0x80	; 128
    12ae:	9f e3       	ldi	r25, 0x3F	; 63
    12b0:	0e 94 be 11 	call	0x237c	; 0x237c <__subsf3>
    12b4:	4b 01       	movw	r8, r22
    12b6:	5c 01       	movw	r10, r24
    12b8:	80 91 cd 03 	lds	r24, 0x03CD	; 0x8003cd <color_i.1929>
    12bc:	90 e0       	ldi	r25, 0x00	; 0
    12be:	fc 01       	movw	r30, r24
    12c0:	ee 0f       	add	r30, r30
    12c2:	ff 1f       	adc	r31, r31
    12c4:	ee 0f       	add	r30, r30
    12c6:	ff 1f       	adc	r31, r31
    12c8:	ee 5f       	subi	r30, 0xFE	; 254
    12ca:	fe 4f       	sbci	r31, 0xFE	; 254
    12cc:	20 81       	ld	r18, Z
    12ce:	31 81       	ldd	r19, Z+1	; 0x01
    12d0:	42 81       	ldd	r20, Z+2	; 0x02
    12d2:	53 81       	ldd	r21, Z+3	; 0x03
    12d4:	29 83       	std	Y+1, r18	; 0x01
    12d6:	3a 83       	std	Y+2, r19	; 0x02
    12d8:	4b 83       	std	Y+3, r20	; 0x03
    12da:	5c 83       	std	Y+4, r21	; 0x04
    12dc:	01 96       	adiw	r24, 0x01	; 1
    12de:	60 91 42 01 	lds	r22, 0x0142	; 0x800142 <numColors>
    12e2:	70 e0       	ldi	r23, 0x00	; 0
    12e4:	0e 94 85 14 	call	0x290a	; 0x290a <__divmodhi4>
    12e8:	fc 01       	movw	r30, r24
    12ea:	ee 0f       	add	r30, r30
    12ec:	ff 1f       	adc	r31, r31
    12ee:	ee 0f       	add	r30, r30
    12f0:	ff 1f       	adc	r31, r31
    12f2:	ee 5f       	subi	r30, 0xFE	; 254
    12f4:	fe 4f       	sbci	r31, 0xFE	; 254
    12f6:	80 81       	ld	r24, Z
    12f8:	91 81       	ldd	r25, Z+1	; 0x01
    12fa:	a2 81       	ldd	r26, Z+2	; 0x02
    12fc:	b3 81       	ldd	r27, Z+3	; 0x03
    12fe:	8d 83       	std	Y+5, r24	; 0x05
    1300:	9e 83       	std	Y+6, r25	; 0x06
    1302:	af 83       	std	Y+7, r26	; 0x07
    1304:	b8 87       	std	Y+8, r27	; 0x08
    1306:	69 81       	ldd	r22, Y+1	; 0x01
    1308:	7a 81       	ldd	r23, Y+2	; 0x02
    130a:	8b 81       	ldd	r24, Y+3	; 0x03
    130c:	9c 81       	ldd	r25, Y+4	; 0x04
    130e:	77 27       	eor	r23, r23
    1310:	88 27       	eor	r24, r24
    1312:	99 27       	eor	r25, r25
    1314:	0e 94 d1 12 	call	0x25a2	; 0x25a2 <__floatunsisf>
    1318:	a5 01       	movw	r20, r10
    131a:	94 01       	movw	r18, r8
    131c:	0e 94 88 13 	call	0x2710	; 0x2710 <__mulsf3>
    1320:	2b 01       	movw	r4, r22
    1322:	3c 01       	movw	r6, r24
    1324:	6d 81       	ldd	r22, Y+5	; 0x05
    1326:	7e 81       	ldd	r23, Y+6	; 0x06
    1328:	8f 81       	ldd	r24, Y+7	; 0x07
    132a:	98 85       	ldd	r25, Y+8	; 0x08
    132c:	77 27       	eor	r23, r23
    132e:	88 27       	eor	r24, r24
    1330:	99 27       	eor	r25, r25
    1332:	0e 94 d1 12 	call	0x25a2	; 0x25a2 <__floatunsisf>
    1336:	a7 01       	movw	r20, r14
    1338:	96 01       	movw	r18, r12
    133a:	0e 94 88 13 	call	0x2710	; 0x2710 <__mulsf3>
    133e:	9b 01       	movw	r18, r22
    1340:	ac 01       	movw	r20, r24
    1342:	c3 01       	movw	r24, r6
    1344:	b2 01       	movw	r22, r4
    1346:	0e 94 bf 11 	call	0x237e	; 0x237e <__addsf3>
    134a:	0e 94 a2 12 	call	0x2544	; 0x2544 <__fixunssfsi>
    134e:	6e 87       	std	Y+14, r22	; 0x0e
    1350:	aa 81       	ldd	r26, Y+2	; 0x02
    1352:	6a 2f       	mov	r22, r26
    1354:	70 e0       	ldi	r23, 0x00	; 0
    1356:	80 e0       	ldi	r24, 0x00	; 0
    1358:	90 e0       	ldi	r25, 0x00	; 0
    135a:	0e 94 d1 12 	call	0x25a2	; 0x25a2 <__floatunsisf>
    135e:	a5 01       	movw	r20, r10
    1360:	94 01       	movw	r18, r8
    1362:	0e 94 88 13 	call	0x2710	; 0x2710 <__mulsf3>
    1366:	2b 01       	movw	r4, r22
    1368:	3c 01       	movw	r6, r24
    136a:	be 81       	ldd	r27, Y+6	; 0x06
    136c:	6b 2f       	mov	r22, r27
    136e:	70 e0       	ldi	r23, 0x00	; 0
    1370:	80 e0       	ldi	r24, 0x00	; 0
    1372:	90 e0       	ldi	r25, 0x00	; 0
    1374:	0e 94 d1 12 	call	0x25a2	; 0x25a2 <__floatunsisf>
    1378:	a7 01       	movw	r20, r14
    137a:	96 01       	movw	r18, r12
    137c:	0e 94 88 13 	call	0x2710	; 0x2710 <__mulsf3>
    1380:	9b 01       	movw	r18, r22
    1382:	ac 01       	movw	r20, r24
    1384:	c3 01       	movw	r24, r6
    1386:	b2 01       	movw	r22, r4
    1388:	0e 94 bf 11 	call	0x237e	; 0x237e <__addsf3>
    138c:	0e 94 a2 12 	call	0x2544	; 0x2544 <__fixunssfsi>
    1390:	76 2e       	mov	r7, r22
    1392:	2b 81       	ldd	r18, Y+3	; 0x03
    1394:	62 2f       	mov	r22, r18
    1396:	70 e0       	ldi	r23, 0x00	; 0
    1398:	80 e0       	ldi	r24, 0x00	; 0
    139a:	90 e0       	ldi	r25, 0x00	; 0
    139c:	0e 94 d1 12 	call	0x25a2	; 0x25a2 <__floatunsisf>
    13a0:	a5 01       	movw	r20, r10
    13a2:	94 01       	movw	r18, r8
    13a4:	0e 94 88 13 	call	0x2710	; 0x2710 <__mulsf3>
    13a8:	1b 01       	movw	r2, r22
    13aa:	2c 01       	movw	r4, r24
    13ac:	3f 81       	ldd	r19, Y+7	; 0x07
    13ae:	63 2f       	mov	r22, r19
    13b0:	70 e0       	ldi	r23, 0x00	; 0
    13b2:	80 e0       	ldi	r24, 0x00	; 0
    13b4:	90 e0       	ldi	r25, 0x00	; 0
    13b6:	0e 94 d1 12 	call	0x25a2	; 0x25a2 <__floatunsisf>
    13ba:	a7 01       	movw	r20, r14
    13bc:	96 01       	movw	r18, r12
    13be:	0e 94 88 13 	call	0x2710	; 0x2710 <__mulsf3>
    13c2:	9b 01       	movw	r18, r22
    13c4:	ac 01       	movw	r20, r24
    13c6:	c2 01       	movw	r24, r4
    13c8:	b1 01       	movw	r22, r2
    13ca:	0e 94 bf 11 	call	0x237e	; 0x237e <__addsf3>
    13ce:	0e 94 a2 12 	call	0x2544	; 0x2544 <__fixunssfsi>
    13d2:	ef 85       	ldd	r30, Y+15	; 0x0f
    13d4:	fd 85       	ldd	r31, Y+13	; 0x0d
    13d6:	c8 01       	movw	r24, r16
    13d8:	88 0f       	add	r24, r24
    13da:	99 1f       	adc	r25, r25
    13dc:	88 0f       	add	r24, r24
    13de:	99 1f       	adc	r25, r25
    13e0:	8e 0f       	add	r24, r30
    13e2:	9f 1f       	adc	r25, r31
    13e4:	4e 85       	ldd	r20, Y+14	; 0x0e
    13e6:	41 83       	std	Z+1, r20	; 0x01
    13e8:	72 82       	std	Z+2, r7	; 0x02
    13ea:	60 83       	st	Z, r22
    13ec:	34 96       	adiw	r30, 0x04	; 4
    13ee:	e8 17       	cp	r30, r24
    13f0:	f9 07       	cpc	r31, r25
    13f2:	c9 f7       	brne	.-14     	; 0x13e6 <seqSoftSwitchFunc+0x1b6>
    13f4:	a7 01       	movw	r20, r14
    13f6:	96 01       	movw	r18, r12
    13f8:	69 85       	ldd	r22, Y+9	; 0x09
    13fa:	7a 85       	ldd	r23, Y+10	; 0x0a
    13fc:	8b 85       	ldd	r24, Y+11	; 0x0b
    13fe:	9c 85       	ldd	r25, Y+12	; 0x0c
    1400:	0e 94 bf 11 	call	0x237e	; 0x237e <__addsf3>
    1404:	60 93 ce 03 	sts	0x03CE, r22	; 0x8003ce <k.1930>
    1408:	70 93 cf 03 	sts	0x03CF, r23	; 0x8003cf <k.1930+0x1>
    140c:	80 93 d0 03 	sts	0x03D0, r24	; 0x8003d0 <k.1930+0x2>
    1410:	90 93 d1 03 	sts	0x03D1, r25	; 0x8003d1 <k.1930+0x3>
    1414:	20 e0       	ldi	r18, 0x00	; 0
    1416:	30 e0       	ldi	r19, 0x00	; 0
    1418:	40 e8       	ldi	r20, 0x80	; 128
    141a:	5f e3       	ldi	r21, 0x3F	; 63
    141c:	0e 94 83 13 	call	0x2706	; 0x2706 <__gesf2>
    1420:	87 fd       	sbrc	r24, 7
    1422:	13 c0       	rjmp	.+38     	; 0x144a <seqSoftSwitchFunc+0x21a>
    1424:	80 91 cd 03 	lds	r24, 0x03CD	; 0x8003cd <color_i.1929>
    1428:	90 e0       	ldi	r25, 0x00	; 0
    142a:	01 96       	adiw	r24, 0x01	; 1
    142c:	60 91 42 01 	lds	r22, 0x0142	; 0x800142 <numColors>
    1430:	70 e0       	ldi	r23, 0x00	; 0
    1432:	0e 94 85 14 	call	0x290a	; 0x290a <__divmodhi4>
    1436:	80 93 cd 03 	sts	0x03CD, r24	; 0x8003cd <color_i.1929>
    143a:	10 92 ce 03 	sts	0x03CE, r1	; 0x8003ce <k.1930>
    143e:	10 92 cf 03 	sts	0x03CF, r1	; 0x8003cf <k.1930+0x1>
    1442:	10 92 d0 03 	sts	0x03D0, r1	; 0x8003d0 <k.1930+0x2>
    1446:	10 92 d1 03 	sts	0x03D1, r1	; 0x8003d1 <k.1930+0x3>
    144a:	2f 96       	adiw	r28, 0x0f	; 15
    144c:	0f b6       	in	r0, 0x3f	; 63
    144e:	f8 94       	cli
    1450:	de bf       	out	0x3e, r29	; 62
    1452:	0f be       	out	0x3f, r0	; 63
    1454:	cd bf       	out	0x3d, r28	; 61
    1456:	df 91       	pop	r29
    1458:	cf 91       	pop	r28
    145a:	1f 91       	pop	r17
    145c:	0f 91       	pop	r16
    145e:	ff 90       	pop	r15
    1460:	ef 90       	pop	r14
    1462:	df 90       	pop	r13
    1464:	cf 90       	pop	r12
    1466:	bf 90       	pop	r11
    1468:	af 90       	pop	r10
    146a:	9f 90       	pop	r9
    146c:	8f 90       	pop	r8
    146e:	7f 90       	pop	r7
    1470:	6f 90       	pop	r6
    1472:	5f 90       	pop	r5
    1474:	4f 90       	pop	r4
    1476:	3f 90       	pop	r3
    1478:	2f 90       	pop	r2
    147a:	08 95       	ret

0000147c <seqStaticColor>:
    147c:	16 16       	cp	r1, r22
    147e:	17 06       	cpc	r1, r23
    1480:	a4 f4       	brge	.+40     	; 0x14aa <seqStaticColor+0x2e>
    1482:	40 91 02 01 	lds	r20, 0x0102	; 0x800102 <colors>
    1486:	30 91 03 01 	lds	r19, 0x0103	; 0x800103 <colors+0x1>
    148a:	20 91 04 01 	lds	r18, 0x0104	; 0x800104 <colors+0x2>
    148e:	fc 01       	movw	r30, r24
    1490:	66 0f       	add	r22, r22
    1492:	77 1f       	adc	r23, r23
    1494:	66 0f       	add	r22, r22
    1496:	77 1f       	adc	r23, r23
    1498:	6e 0f       	add	r22, r30
    149a:	7f 1f       	adc	r23, r31
    149c:	41 83       	std	Z+1, r20	; 0x01
    149e:	32 83       	std	Z+2, r19	; 0x02
    14a0:	20 83       	st	Z, r18
    14a2:	34 96       	adiw	r30, 0x04	; 4
    14a4:	e6 17       	cp	r30, r22
    14a6:	f7 07       	cpc	r31, r23
    14a8:	c9 f7       	brne	.-14     	; 0x149c <seqStaticColor+0x20>
    14aa:	08 95       	ret

000014ac <seqParticles>:
    14ac:	2f 92       	push	r2
    14ae:	3f 92       	push	r3
    14b0:	4f 92       	push	r4
    14b2:	5f 92       	push	r5
    14b4:	6f 92       	push	r6
    14b6:	7f 92       	push	r7
    14b8:	8f 92       	push	r8
    14ba:	9f 92       	push	r9
    14bc:	af 92       	push	r10
    14be:	bf 92       	push	r11
    14c0:	cf 92       	push	r12
    14c2:	df 92       	push	r13
    14c4:	ef 92       	push	r14
    14c6:	ff 92       	push	r15
    14c8:	0f 93       	push	r16
    14ca:	1f 93       	push	r17
    14cc:	cf 93       	push	r28
    14ce:	df 93       	push	r29
    14d0:	cd b7       	in	r28, 0x3d	; 61
    14d2:	de b7       	in	r29, 0x3e	; 62
    14d4:	ac 97       	sbiw	r28, 0x2c	; 44
    14d6:	0f b6       	in	r0, 0x3f	; 63
    14d8:	f8 94       	cli
    14da:	de bf       	out	0x3e, r29	; 62
    14dc:	0f be       	out	0x3f, r0	; 63
    14de:	cd bf       	out	0x3d, r28	; 61
    14e0:	9c a3       	std	Y+36, r25	; 0x24
    14e2:	8b a3       	std	Y+35, r24	; 0x23
    14e4:	7e a3       	std	Y+38, r23	; 0x26
    14e6:	6d a3       	std	Y+37, r22	; 0x25
    14e8:	60 91 45 01 	lds	r22, 0x0145	; 0x800145 <seqSpeed>
    14ec:	70 e0       	ldi	r23, 0x00	; 0
    14ee:	80 e0       	ldi	r24, 0x00	; 0
    14f0:	90 e0       	ldi	r25, 0x00	; 0
    14f2:	0e 94 d3 12 	call	0x25a6	; 0x25a6 <__floatsisf>
    14f6:	20 e0       	ldi	r18, 0x00	; 0
    14f8:	30 e0       	ldi	r19, 0x00	; 0
    14fa:	48 e4       	ldi	r20, 0x48	; 72
    14fc:	52 e4       	ldi	r21, 0x42	; 66
    14fe:	0e 94 30 12 	call	0x2460	; 0x2460 <__divsf3>
    1502:	6f a3       	std	Y+39, r22	; 0x27
    1504:	78 a7       	std	Y+40, r23	; 0x28
    1506:	89 a7       	std	Y+41, r24	; 0x29
    1508:	9a a7       	std	Y+42, r25	; 0x2a
    150a:	60 91 43 01 	lds	r22, 0x0143	; 0x800143 <seqSize>
    150e:	70 e0       	ldi	r23, 0x00	; 0
    1510:	80 e0       	ldi	r24, 0x00	; 0
    1512:	90 e0       	ldi	r25, 0x00	; 0
    1514:	0e 94 d1 12 	call	0x25a2	; 0x25a2 <__floatunsisf>
    1518:	6d 83       	std	Y+5, r22	; 0x05
    151a:	7e 83       	std	Y+6, r23	; 0x06
    151c:	8f 83       	std	Y+7, r24	; 0x07
    151e:	98 87       	std	Y+8, r25	; 0x08
    1520:	20 90 d7 03 	lds	r2, 0x03D7	; 0x8003d7 <length.1966>
    1524:	30 90 d8 03 	lds	r3, 0x03D8	; 0x8003d8 <length.1966+0x1>
    1528:	c0 90 db 03 	lds	r12, 0x03DB	; 0x8003db <pos.1965>
    152c:	d0 90 dc 03 	lds	r13, 0x03DC	; 0x8003dc <pos.1965+0x1>
    1530:	e0 90 dd 03 	lds	r14, 0x03DD	; 0x8003dd <pos.1965+0x2>
    1534:	f0 90 de 03 	lds	r15, 0x03DE	; 0x8003de <pos.1965+0x3>
    1538:	c9 86       	std	Y+9, r12	; 0x09
    153a:	da 86       	std	Y+10, r13	; 0x0a
    153c:	eb 86       	std	Y+11, r14	; 0x0b
    153e:	fc 86       	std	Y+12, r15	; 0x0c
    1540:	12 14       	cp	r1, r2
    1542:	13 04       	cpc	r1, r3
    1544:	0c f0       	brlt	.+2      	; 0x1548 <seqParticles+0x9c>
    1546:	19 c1       	rjmp	.+562    	; 0x177a <seqParticles+0x2ce>
    1548:	a0 90 d9 03 	lds	r10, 0x03D9	; 0x8003d9 <color_id.1967>
    154c:	b0 90 da 03 	lds	r11, 0x03DA	; 0x8003da <color_id.1967+0x1>
    1550:	f5 01       	movw	r30, r10
    1552:	ee 0f       	add	r30, r30
    1554:	ff 1f       	adc	r31, r31
    1556:	ee 0f       	add	r30, r30
    1558:	ff 1f       	adc	r31, r31
    155a:	ee 5f       	subi	r30, 0xFE	; 254
    155c:	fe 4f       	sbci	r31, 0xFE	; 254
    155e:	c0 80       	ld	r12, Z
    1560:	d1 80       	ldd	r13, Z+1	; 0x01
    1562:	e2 80       	ldd	r14, Z+2	; 0x02
    1564:	f3 80       	ldd	r15, Z+3	; 0x03
    1566:	cd 86       	std	Y+13, r12	; 0x0d
    1568:	de 86       	std	Y+14, r13	; 0x0e
    156a:	ef 86       	std	Y+15, r14	; 0x0f
    156c:	f8 8a       	std	Y+16, r15	; 0x10
    156e:	20 91 42 01 	lds	r18, 0x0142	; 0x800142 <numColors>
    1572:	e2 2e       	mov	r14, r18
    1574:	f1 2c       	mov	r15, r1
    1576:	fa 8a       	std	Y+18, r15	; 0x12
    1578:	e9 8a       	std	Y+17, r14	; 0x11
    157a:	8b a0       	ldd	r8, Y+35	; 0x23
    157c:	9c a0       	ldd	r9, Y+36	; 0x24
    157e:	cd 84       	ldd	r12, Y+13	; 0x0d
    1580:	de 84       	ldd	r13, Y+14	; 0x0e
    1582:	ef 84       	ldd	r14, Y+15	; 0x0f
    1584:	f8 88       	ldd	r15, Y+16	; 0x10
    1586:	33 27       	eor	r19, r19
    1588:	2f 2d       	mov	r18, r15
    158a:	1e 2d       	mov	r17, r14
    158c:	0d 2d       	mov	r16, r13
    158e:	b9 01       	movw	r22, r18
    1590:	a8 01       	movw	r20, r16
    1592:	55 27       	eor	r21, r21
    1594:	66 27       	eor	r22, r22
    1596:	77 27       	eor	r23, r23
    1598:	4b 8b       	std	Y+19, r20	; 0x13
    159a:	5c 8b       	std	Y+20, r21	; 0x14
    159c:	6d 8b       	std	Y+21, r22	; 0x15
    159e:	7e 8b       	std	Y+22, r23	; 0x16
    15a0:	a7 01       	movw	r20, r14
    15a2:	66 27       	eor	r22, r22
    15a4:	77 27       	eor	r23, r23
    15a6:	db 01       	movw	r26, r22
    15a8:	ca 01       	movw	r24, r20
    15aa:	99 27       	eor	r25, r25
    15ac:	aa 27       	eor	r26, r26
    15ae:	bb 27       	eor	r27, r27
    15b0:	8f 8b       	std	Y+23, r24	; 0x17
    15b2:	98 8f       	std	Y+24, r25	; 0x18
    15b4:	a9 8f       	std	Y+25, r26	; 0x19
    15b6:	ba 8f       	std	Y+26, r27	; 0x1a
    15b8:	0b 8f       	std	Y+27, r16	; 0x1b
    15ba:	4c 8f       	std	Y+28, r20	; 0x1c
    15bc:	00 e0       	ldi	r16, 0x00	; 0
    15be:	10 e0       	ldi	r17, 0x00	; 0
    15c0:	d5 01       	movw	r26, r10
    15c2:	11 96       	adiw	r26, 0x01	; 1
    15c4:	be 8f       	std	Y+30, r27	; 0x1e
    15c6:	ad 8f       	std	Y+29, r26	; 0x1d
    15c8:	a7 01       	movw	r20, r14
    15ca:	96 01       	movw	r18, r12
    15cc:	33 27       	eor	r19, r19
    15ce:	44 27       	eor	r20, r20
    15d0:	55 27       	eor	r21, r21
    15d2:	2f 8f       	std	Y+31, r18	; 0x1f
    15d4:	38 a3       	std	Y+32, r19	; 0x20
    15d6:	49 a3       	std	Y+33, r20	; 0x21
    15d8:	5a a3       	std	Y+34, r21	; 0x22
    15da:	9c a6       	std	Y+44, r9	; 0x2c
    15dc:	8b a6       	std	Y+43, r8	; 0x2b
    15de:	9c c0       	rjmp	.+312    	; 0x1718 <seqParticles+0x26c>
    15e0:	2d 81       	ldd	r18, Y+5	; 0x05
    15e2:	3e 81       	ldd	r19, Y+6	; 0x06
    15e4:	4f 81       	ldd	r20, Y+7	; 0x07
    15e6:	58 85       	ldd	r21, Y+8	; 0x08
    15e8:	c7 01       	movw	r24, r14
    15ea:	b6 01       	movw	r22, r12
    15ec:	0e 94 30 12 	call	0x2460	; 0x2460 <__divsf3>
    15f0:	6b 01       	movw	r12, r22
    15f2:	7c 01       	movw	r14, r24
    15f4:	9b 01       	movw	r18, r22
    15f6:	ac 01       	movw	r20, r24
    15f8:	60 e0       	ldi	r22, 0x00	; 0
    15fa:	70 e0       	ldi	r23, 0x00	; 0
    15fc:	80 e8       	ldi	r24, 0x80	; 128
    15fe:	9f e3       	ldi	r25, 0x3F	; 63
    1600:	0e 94 be 11 	call	0x237c	; 0x237c <__subsf3>
    1604:	4b 01       	movw	r8, r22
    1606:	5c 01       	movw	r10, r24
    1608:	8d 8d       	ldd	r24, Y+29	; 0x1d
    160a:	9e 8d       	ldd	r25, Y+30	; 0x1e
    160c:	69 89       	ldd	r22, Y+17	; 0x11
    160e:	7a 89       	ldd	r23, Y+18	; 0x12
    1610:	0e 94 85 14 	call	0x290a	; 0x290a <__divmodhi4>
    1614:	fc 01       	movw	r30, r24
    1616:	ee 0f       	add	r30, r30
    1618:	ff 1f       	adc	r31, r31
    161a:	ee 0f       	add	r30, r30
    161c:	ff 1f       	adc	r31, r31
    161e:	ee 5f       	subi	r30, 0xFE	; 254
    1620:	fe 4f       	sbci	r31, 0xFE	; 254
    1622:	40 81       	ld	r20, Z
    1624:	51 81       	ldd	r21, Z+1	; 0x01
    1626:	62 81       	ldd	r22, Z+2	; 0x02
    1628:	73 81       	ldd	r23, Z+3	; 0x03
    162a:	49 83       	std	Y+1, r20	; 0x01
    162c:	5a 83       	std	Y+2, r21	; 0x02
    162e:	6b 83       	std	Y+3, r22	; 0x03
    1630:	7c 83       	std	Y+4, r23	; 0x04
    1632:	6f 8d       	ldd	r22, Y+31	; 0x1f
    1634:	78 a1       	ldd	r23, Y+32	; 0x20
    1636:	89 a1       	ldd	r24, Y+33	; 0x21
    1638:	9a a1       	ldd	r25, Y+34	; 0x22
    163a:	0e 94 d1 12 	call	0x25a2	; 0x25a2 <__floatunsisf>
    163e:	a7 01       	movw	r20, r14
    1640:	96 01       	movw	r18, r12
    1642:	0e 94 88 13 	call	0x2710	; 0x2710 <__mulsf3>
    1646:	2b 01       	movw	r4, r22
    1648:	3c 01       	movw	r6, r24
    164a:	69 81       	ldd	r22, Y+1	; 0x01
    164c:	7a 81       	ldd	r23, Y+2	; 0x02
    164e:	8b 81       	ldd	r24, Y+3	; 0x03
    1650:	9c 81       	ldd	r25, Y+4	; 0x04
    1652:	77 27       	eor	r23, r23
    1654:	88 27       	eor	r24, r24
    1656:	99 27       	eor	r25, r25
    1658:	0e 94 d1 12 	call	0x25a2	; 0x25a2 <__floatunsisf>
    165c:	a5 01       	movw	r20, r10
    165e:	94 01       	movw	r18, r8
    1660:	0e 94 88 13 	call	0x2710	; 0x2710 <__mulsf3>
    1664:	9b 01       	movw	r18, r22
    1666:	ac 01       	movw	r20, r24
    1668:	c3 01       	movw	r24, r6
    166a:	b2 01       	movw	r22, r4
    166c:	0e 94 bf 11 	call	0x237e	; 0x237e <__addsf3>
    1670:	0e 94 a2 12 	call	0x2544	; 0x2544 <__fixunssfsi>
    1674:	ab a5       	ldd	r26, Y+43	; 0x2b
    1676:	bc a5       	ldd	r27, Y+44	; 0x2c
    1678:	11 96       	adiw	r26, 0x01	; 1
    167a:	6c 93       	st	X, r22
    167c:	ba 81       	ldd	r27, Y+2	; 0x02
    167e:	6b 2f       	mov	r22, r27
    1680:	70 e0       	ldi	r23, 0x00	; 0
    1682:	80 e0       	ldi	r24, 0x00	; 0
    1684:	90 e0       	ldi	r25, 0x00	; 0
    1686:	0e 94 d1 12 	call	0x25a2	; 0x25a2 <__floatunsisf>
    168a:	a5 01       	movw	r20, r10
    168c:	94 01       	movw	r18, r8
    168e:	0e 94 88 13 	call	0x2710	; 0x2710 <__mulsf3>
    1692:	2b 01       	movw	r4, r22
    1694:	3c 01       	movw	r6, r24
    1696:	6b 89       	ldd	r22, Y+19	; 0x13
    1698:	7c 89       	ldd	r23, Y+20	; 0x14
    169a:	8d 89       	ldd	r24, Y+21	; 0x15
    169c:	9e 89       	ldd	r25, Y+22	; 0x16
    169e:	0e 94 d1 12 	call	0x25a2	; 0x25a2 <__floatunsisf>
    16a2:	a7 01       	movw	r20, r14
    16a4:	96 01       	movw	r18, r12
    16a6:	0e 94 88 13 	call	0x2710	; 0x2710 <__mulsf3>
    16aa:	9b 01       	movw	r18, r22
    16ac:	ac 01       	movw	r20, r24
    16ae:	c3 01       	movw	r24, r6
    16b0:	b2 01       	movw	r22, r4
    16b2:	0e 94 bf 11 	call	0x237e	; 0x237e <__addsf3>
    16b6:	0e 94 a2 12 	call	0x2544	; 0x2544 <__fixunssfsi>
    16ba:	eb a5       	ldd	r30, Y+43	; 0x2b
    16bc:	fc a5       	ldd	r31, Y+44	; 0x2c
    16be:	62 83       	std	Z+2, r22	; 0x02
    16c0:	fb 81       	ldd	r31, Y+3	; 0x03
    16c2:	6f 2f       	mov	r22, r31
    16c4:	70 e0       	ldi	r23, 0x00	; 0
    16c6:	80 e0       	ldi	r24, 0x00	; 0
    16c8:	90 e0       	ldi	r25, 0x00	; 0
    16ca:	0e 94 d1 12 	call	0x25a2	; 0x25a2 <__floatunsisf>
    16ce:	a5 01       	movw	r20, r10
    16d0:	94 01       	movw	r18, r8
    16d2:	0e 94 88 13 	call	0x2710	; 0x2710 <__mulsf3>
    16d6:	4b 01       	movw	r8, r22
    16d8:	5c 01       	movw	r10, r24
    16da:	6f 89       	ldd	r22, Y+23	; 0x17
    16dc:	78 8d       	ldd	r23, Y+24	; 0x18
    16de:	89 8d       	ldd	r24, Y+25	; 0x19
    16e0:	9a 8d       	ldd	r25, Y+26	; 0x1a
    16e2:	0e 94 d1 12 	call	0x25a2	; 0x25a2 <__floatunsisf>
    16e6:	a7 01       	movw	r20, r14
    16e8:	96 01       	movw	r18, r12
    16ea:	0e 94 88 13 	call	0x2710	; 0x2710 <__mulsf3>
    16ee:	9b 01       	movw	r18, r22
    16f0:	ac 01       	movw	r20, r24
    16f2:	c5 01       	movw	r24, r10
    16f4:	b4 01       	movw	r22, r8
    16f6:	0e 94 bf 11 	call	0x237e	; 0x237e <__addsf3>
    16fa:	0e 94 a2 12 	call	0x2544	; 0x2544 <__fixunssfsi>
    16fe:	ab a5       	ldd	r26, Y+43	; 0x2b
    1700:	bc a5       	ldd	r27, Y+44	; 0x2c
    1702:	6c 93       	st	X, r22
    1704:	9d 01       	movw	r18, r26
    1706:	0f 5f       	subi	r16, 0xFF	; 255
    1708:	1f 4f       	sbci	r17, 0xFF	; 255
    170a:	2c 5f       	subi	r18, 0xFC	; 252
    170c:	3f 4f       	sbci	r19, 0xFF	; 255
    170e:	3c a7       	std	Y+44, r19	; 0x2c
    1710:	2b a7       	std	Y+43, r18	; 0x2b
    1712:	02 15       	cp	r16, r2
    1714:	13 05       	cpc	r17, r3
    1716:	8c f5       	brge	.+98     	; 0x177a <seqParticles+0x2ce>
    1718:	b8 01       	movw	r22, r16
    171a:	01 2e       	mov	r0, r17
    171c:	00 0c       	add	r0, r0
    171e:	88 0b       	sbc	r24, r24
    1720:	99 0b       	sbc	r25, r25
    1722:	0e 94 d3 12 	call	0x25a6	; 0x25a6 <__floatsisf>
    1726:	9b 01       	movw	r18, r22
    1728:	ac 01       	movw	r20, r24
    172a:	69 85       	ldd	r22, Y+9	; 0x09
    172c:	7a 85       	ldd	r23, Y+10	; 0x0a
    172e:	8b 85       	ldd	r24, Y+11	; 0x0b
    1730:	9c 85       	ldd	r25, Y+12	; 0x0c
    1732:	0e 94 be 11 	call	0x237c	; 0x237c <__subsf3>
    1736:	6b 01       	movw	r12, r22
    1738:	7c 01       	movw	r14, r24
    173a:	20 e0       	ldi	r18, 0x00	; 0
    173c:	30 e0       	ldi	r19, 0x00	; 0
    173e:	a9 01       	movw	r20, r18
    1740:	0e 94 2b 12 	call	0x2456	; 0x2456 <__cmpsf2>
    1744:	87 fd       	sbrc	r24, 7
    1746:	14 c0       	rjmp	.+40     	; 0x1770 <seqParticles+0x2c4>
    1748:	2d 81       	ldd	r18, Y+5	; 0x05
    174a:	3e 81       	ldd	r19, Y+6	; 0x06
    174c:	4f 81       	ldd	r20, Y+7	; 0x07
    174e:	58 85       	ldd	r21, Y+8	; 0x08
    1750:	c7 01       	movw	r24, r14
    1752:	b6 01       	movw	r22, r12
    1754:	0e 94 2b 12 	call	0x2456	; 0x2456 <__cmpsf2>
    1758:	87 fd       	sbrc	r24, 7
    175a:	42 cf       	rjmp	.-380    	; 0x15e0 <seqParticles+0x134>
    175c:	cd 84       	ldd	r12, Y+13	; 0x0d
    175e:	eb a5       	ldd	r30, Y+43	; 0x2b
    1760:	fc a5       	ldd	r31, Y+44	; 0x2c
    1762:	c1 82       	std	Z+1, r12	; 0x01
    1764:	db 8c       	ldd	r13, Y+27	; 0x1b
    1766:	d2 82       	std	Z+2, r13	; 0x02
    1768:	ec 8c       	ldd	r14, Y+28	; 0x1c
    176a:	e0 82       	st	Z, r14
    176c:	9f 01       	movw	r18, r30
    176e:	cb cf       	rjmp	.-106    	; 0x1706 <seqParticles+0x25a>
    1770:	f7 fa       	bst	r15, 7
    1772:	f0 94       	com	r15
    1774:	f7 f8       	bld	r15, 7
    1776:	f0 94       	com	r15
    1778:	e7 cf       	rjmp	.-50     	; 0x1748 <seqParticles+0x29c>
    177a:	cd a0       	ldd	r12, Y+37	; 0x25
    177c:	de a0       	ldd	r13, Y+38	; 0x26
    177e:	2c 14       	cp	r2, r12
    1780:	3d 04       	cpc	r3, r13
    1782:	64 f5       	brge	.+88     	; 0x17dc <seqParticles+0x330>
    1784:	80 91 d9 03 	lds	r24, 0x03D9	; 0x8003d9 <color_id.1967>
    1788:	90 91 da 03 	lds	r25, 0x03DA	; 0x8003da <color_id.1967+0x1>
    178c:	01 96       	adiw	r24, 0x01	; 1
    178e:	60 91 42 01 	lds	r22, 0x0142	; 0x800142 <numColors>
    1792:	70 e0       	ldi	r23, 0x00	; 0
    1794:	0e 94 85 14 	call	0x290a	; 0x290a <__divmodhi4>
    1798:	fc 01       	movw	r30, r24
    179a:	ee 0f       	add	r30, r30
    179c:	ff 1f       	adc	r31, r31
    179e:	ee 0f       	add	r30, r30
    17a0:	ff 1f       	adc	r31, r31
    17a2:	ee 5f       	subi	r30, 0xFE	; 254
    17a4:	fe 4f       	sbci	r31, 0xFE	; 254
    17a6:	40 81       	ld	r20, Z
    17a8:	31 81       	ldd	r19, Z+1	; 0x01
    17aa:	22 81       	ldd	r18, Z+2	; 0x02
    17ac:	f1 01       	movw	r30, r2
    17ae:	ee 0f       	add	r30, r30
    17b0:	ff 1f       	adc	r31, r31
    17b2:	ee 0f       	add	r30, r30
    17b4:	ff 1f       	adc	r31, r31
    17b6:	eb a0       	ldd	r14, Y+35	; 0x23
    17b8:	fc a0       	ldd	r15, Y+36	; 0x24
    17ba:	ee 0d       	add	r30, r14
    17bc:	ff 1d       	adc	r31, r15
    17be:	8d a1       	ldd	r24, Y+37	; 0x25
    17c0:	9e a1       	ldd	r25, Y+38	; 0x26
    17c2:	88 0f       	add	r24, r24
    17c4:	99 1f       	adc	r25, r25
    17c6:	88 0f       	add	r24, r24
    17c8:	99 1f       	adc	r25, r25
    17ca:	8e 0d       	add	r24, r14
    17cc:	9f 1d       	adc	r25, r15
    17ce:	41 83       	std	Z+1, r20	; 0x01
    17d0:	32 83       	std	Z+2, r19	; 0x02
    17d2:	20 83       	st	Z, r18
    17d4:	34 96       	adiw	r30, 0x04	; 4
    17d6:	e8 17       	cp	r30, r24
    17d8:	f9 07       	cpc	r31, r25
    17da:	c9 f7       	brne	.-14     	; 0x17ce <seqParticles+0x322>
    17dc:	29 85       	ldd	r18, Y+9	; 0x09
    17de:	3a 85       	ldd	r19, Y+10	; 0x0a
    17e0:	4b 85       	ldd	r20, Y+11	; 0x0b
    17e2:	5c 85       	ldd	r21, Y+12	; 0x0c
    17e4:	6f a1       	ldd	r22, Y+39	; 0x27
    17e6:	78 a5       	ldd	r23, Y+40	; 0x28
    17e8:	89 a5       	ldd	r24, Y+41	; 0x29
    17ea:	9a a5       	ldd	r25, Y+42	; 0x2a
    17ec:	0e 94 bf 11 	call	0x237e	; 0x237e <__addsf3>
    17f0:	6b 01       	movw	r12, r22
    17f2:	7c 01       	movw	r14, r24
    17f4:	60 93 db 03 	sts	0x03DB, r22	; 0x8003db <pos.1965>
    17f8:	70 93 dc 03 	sts	0x03DC, r23	; 0x8003dc <pos.1965+0x1>
    17fc:	80 93 dd 03 	sts	0x03DD, r24	; 0x8003dd <pos.1965+0x2>
    1800:	90 93 de 03 	sts	0x03DE, r25	; 0x8003de <pos.1965+0x3>
    1804:	b1 01       	movw	r22, r2
    1806:	03 2c       	mov	r0, r3
    1808:	00 0c       	add	r0, r0
    180a:	88 0b       	sbc	r24, r24
    180c:	99 0b       	sbc	r25, r25
    180e:	0e 94 d3 12 	call	0x25a6	; 0x25a6 <__floatsisf>
    1812:	9b 01       	movw	r18, r22
    1814:	ac 01       	movw	r20, r24
    1816:	c7 01       	movw	r24, r14
    1818:	b6 01       	movw	r22, r12
    181a:	0e 94 83 13 	call	0x2706	; 0x2706 <__gesf2>
    181e:	87 fd       	sbrc	r24, 7
    1820:	35 c0       	rjmp	.+106    	; 0x188c <seqParticles+0x3e0>
    1822:	80 91 d6 03 	lds	r24, 0x03D6	; 0x8003d6 <decremented.1968>
    1826:	81 11       	cpse	r24, r1
    1828:	0a c0       	rjmp	.+20     	; 0x183e <seqParticles+0x392>
    182a:	21 e0       	ldi	r18, 0x01	; 1
    182c:	22 1a       	sub	r2, r18
    182e:	31 08       	sbc	r3, r1
    1830:	30 92 d8 03 	sts	0x03D8, r3	; 0x8003d8 <length.1966+0x1>
    1834:	20 92 d7 03 	sts	0x03D7, r2	; 0x8003d7 <length.1966>
    1838:	81 e0       	ldi	r24, 0x01	; 1
    183a:	80 93 d6 03 	sts	0x03D6, r24	; 0x8003d6 <decremented.1968>
    183e:	b1 01       	movw	r22, r2
    1840:	03 2c       	mov	r0, r3
    1842:	00 0c       	add	r0, r0
    1844:	88 0b       	sbc	r24, r24
    1846:	99 0b       	sbc	r25, r25
    1848:	0e 94 d3 12 	call	0x25a6	; 0x25a6 <__floatsisf>
    184c:	2d 81       	ldd	r18, Y+5	; 0x05
    184e:	3e 81       	ldd	r19, Y+6	; 0x06
    1850:	4f 81       	ldd	r20, Y+7	; 0x07
    1852:	58 85       	ldd	r21, Y+8	; 0x08
    1854:	0e 94 bf 11 	call	0x237e	; 0x237e <__addsf3>
    1858:	9b 01       	movw	r18, r22
    185a:	ac 01       	movw	r20, r24
    185c:	c7 01       	movw	r24, r14
    185e:	b6 01       	movw	r22, r12
    1860:	0e 94 83 13 	call	0x2706	; 0x2706 <__gesf2>
    1864:	87 fd       	sbrc	r24, 7
    1866:	12 c0       	rjmp	.+36     	; 0x188c <seqParticles+0x3e0>
    1868:	8d 81       	ldd	r24, Y+5	; 0x05
    186a:	9e 81       	ldd	r25, Y+6	; 0x06
    186c:	af 81       	ldd	r26, Y+7	; 0x07
    186e:	b8 85       	ldd	r27, Y+8	; 0x08
    1870:	b0 58       	subi	r27, 0x80	; 128
    1872:	80 93 db 03 	sts	0x03DB, r24	; 0x8003db <pos.1965>
    1876:	90 93 dc 03 	sts	0x03DC, r25	; 0x8003dc <pos.1965+0x1>
    187a:	a0 93 dd 03 	sts	0x03DD, r26	; 0x8003dd <pos.1965+0x2>
    187e:	b0 93 de 03 	sts	0x03DE, r27	; 0x8003de <pos.1965+0x3>
    1882:	10 92 d6 03 	sts	0x03D6, r1	; 0x8003d6 <decremented.1968>
    1886:	12 14       	cp	r1, r2
    1888:	13 04       	cpc	r1, r3
    188a:	cc f4       	brge	.+50     	; 0x18be <seqParticles+0x412>
    188c:	ac 96       	adiw	r28, 0x2c	; 44
    188e:	0f b6       	in	r0, 0x3f	; 63
    1890:	f8 94       	cli
    1892:	de bf       	out	0x3e, r29	; 62
    1894:	0f be       	out	0x3f, r0	; 63
    1896:	cd bf       	out	0x3d, r28	; 61
    1898:	df 91       	pop	r29
    189a:	cf 91       	pop	r28
    189c:	1f 91       	pop	r17
    189e:	0f 91       	pop	r16
    18a0:	ff 90       	pop	r15
    18a2:	ef 90       	pop	r14
    18a4:	df 90       	pop	r13
    18a6:	cf 90       	pop	r12
    18a8:	bf 90       	pop	r11
    18aa:	af 90       	pop	r10
    18ac:	9f 90       	pop	r9
    18ae:	8f 90       	pop	r8
    18b0:	7f 90       	pop	r7
    18b2:	6f 90       	pop	r6
    18b4:	5f 90       	pop	r5
    18b6:	4f 90       	pop	r4
    18b8:	3f 90       	pop	r3
    18ba:	2f 90       	pop	r2
    18bc:	08 95       	ret
    18be:	cd a0       	ldd	r12, Y+37	; 0x25
    18c0:	de a0       	ldd	r13, Y+38	; 0x26
    18c2:	d0 92 d8 03 	sts	0x03D8, r13	; 0x8003d8 <length.1966+0x1>
    18c6:	c0 92 d7 03 	sts	0x03D7, r12	; 0x8003d7 <length.1966>
    18ca:	80 91 d9 03 	lds	r24, 0x03D9	; 0x8003d9 <color_id.1967>
    18ce:	90 91 da 03 	lds	r25, 0x03DA	; 0x8003da <color_id.1967+0x1>
    18d2:	01 96       	adiw	r24, 0x01	; 1
    18d4:	60 91 42 01 	lds	r22, 0x0142	; 0x800142 <numColors>
    18d8:	70 e0       	ldi	r23, 0x00	; 0
    18da:	0e 94 85 14 	call	0x290a	; 0x290a <__divmodhi4>
    18de:	90 93 da 03 	sts	0x03DA, r25	; 0x8003da <color_id.1967+0x1>
    18e2:	80 93 d9 03 	sts	0x03D9, r24	; 0x8003d9 <color_id.1967>
    18e6:	d2 cf       	rjmp	.-92     	; 0x188c <seqParticles+0x3e0>

000018e8 <seqParticlesDark>:
    18e8:	2f 92       	push	r2
    18ea:	3f 92       	push	r3
    18ec:	4f 92       	push	r4
    18ee:	5f 92       	push	r5
    18f0:	6f 92       	push	r6
    18f2:	7f 92       	push	r7
    18f4:	8f 92       	push	r8
    18f6:	9f 92       	push	r9
    18f8:	af 92       	push	r10
    18fa:	bf 92       	push	r11
    18fc:	cf 92       	push	r12
    18fe:	df 92       	push	r13
    1900:	ef 92       	push	r14
    1902:	ff 92       	push	r15
    1904:	0f 93       	push	r16
    1906:	1f 93       	push	r17
    1908:	cf 93       	push	r28
    190a:	df 93       	push	r29
    190c:	cd b7       	in	r28, 0x3d	; 61
    190e:	de b7       	in	r29, 0x3e	; 62
    1910:	62 97       	sbiw	r28, 0x12	; 18
    1912:	0f b6       	in	r0, 0x3f	; 63
    1914:	f8 94       	cli
    1916:	de bf       	out	0x3e, r29	; 62
    1918:	0f be       	out	0x3f, r0	; 63
    191a:	cd bf       	out	0x3d, r28	; 61
    191c:	9a 87       	std	Y+10, r25	; 0x0a
    191e:	89 87       	std	Y+9, r24	; 0x09
    1920:	7c 87       	std	Y+12, r23	; 0x0c
    1922:	6b 87       	std	Y+11, r22	; 0x0b
    1924:	60 91 45 01 	lds	r22, 0x0145	; 0x800145 <seqSpeed>
    1928:	70 e0       	ldi	r23, 0x00	; 0
    192a:	80 e0       	ldi	r24, 0x00	; 0
    192c:	90 e0       	ldi	r25, 0x00	; 0
    192e:	0e 94 d3 12 	call	0x25a6	; 0x25a6 <__floatsisf>
    1932:	20 e0       	ldi	r18, 0x00	; 0
    1934:	30 e0       	ldi	r19, 0x00	; 0
    1936:	48 e4       	ldi	r20, 0x48	; 72
    1938:	52 e4       	ldi	r21, 0x42	; 66
    193a:	0e 94 30 12 	call	0x2460	; 0x2460 <__divsf3>
    193e:	6d 87       	std	Y+13, r22	; 0x0d
    1940:	7e 87       	std	Y+14, r23	; 0x0e
    1942:	8f 87       	std	Y+15, r24	; 0x0f
    1944:	98 8b       	std	Y+16, r25	; 0x10
    1946:	60 91 43 01 	lds	r22, 0x0143	; 0x800143 <seqSize>
    194a:	70 e0       	ldi	r23, 0x00	; 0
    194c:	80 e0       	ldi	r24, 0x00	; 0
    194e:	90 e0       	ldi	r25, 0x00	; 0
    1950:	0e 94 d1 12 	call	0x25a2	; 0x25a2 <__floatunsisf>
    1954:	2b 01       	movw	r4, r22
    1956:	3c 01       	movw	r6, r24
    1958:	20 90 e0 03 	lds	r2, 0x03E0	; 0x8003e0 <length.1986>
    195c:	30 90 e1 03 	lds	r3, 0x03E1	; 0x8003e1 <length.1986+0x1>
    1960:	12 14       	cp	r1, r2
    1962:	13 04       	cpc	r1, r3
    1964:	0c f0       	brlt	.+2      	; 0x1968 <seqParticlesDark+0x80>
    1966:	a7 c0       	rjmp	.+334    	; 0x1ab6 <seqParticlesDark+0x1ce>
    1968:	80 91 e4 03 	lds	r24, 0x03E4	; 0x8003e4 <pos.1985>
    196c:	90 91 e5 03 	lds	r25, 0x03E5	; 0x8003e5 <pos.1985+0x1>
    1970:	a0 91 e6 03 	lds	r26, 0x03E6	; 0x8003e6 <pos.1985+0x2>
    1974:	b0 91 e7 03 	lds	r27, 0x03E7	; 0x8003e7 <pos.1985+0x3>
    1978:	89 83       	std	Y+1, r24	; 0x01
    197a:	9a 83       	std	Y+2, r25	; 0x02
    197c:	ab 83       	std	Y+3, r26	; 0x03
    197e:	bc 83       	std	Y+4, r27	; 0x04
    1980:	80 91 e2 03 	lds	r24, 0x03E2	; 0x8003e2 <color_id.1987>
    1984:	90 91 e3 03 	lds	r25, 0x03E3	; 0x8003e3 <color_id.1987+0x1>
    1988:	dc 01       	movw	r26, r24
    198a:	11 96       	adiw	r26, 0x01	; 1
    198c:	be 83       	std	Y+6, r27	; 0x06
    198e:	ad 83       	std	Y+5, r26	; 0x05
    1990:	80 91 42 01 	lds	r24, 0x0142	; 0x800142 <numColors>
    1994:	e8 2f       	mov	r30, r24
    1996:	f0 e0       	ldi	r31, 0x00	; 0
    1998:	f8 87       	std	Y+8, r31	; 0x08
    199a:	ef 83       	std	Y+7, r30	; 0x07
    199c:	29 85       	ldd	r18, Y+9	; 0x09
    199e:	3a 85       	ldd	r19, Y+10	; 0x0a
    19a0:	3a 8b       	std	Y+18, r19	; 0x12
    19a2:	29 8b       	std	Y+17, r18	; 0x11
    19a4:	00 e0       	ldi	r16, 0x00	; 0
    19a6:	10 e0       	ldi	r17, 0x00	; 0
    19a8:	5a c0       	rjmp	.+180    	; 0x1a5e <seqParticlesDark+0x176>
    19aa:	a3 01       	movw	r20, r6
    19ac:	92 01       	movw	r18, r4
    19ae:	c7 01       	movw	r24, r14
    19b0:	b6 01       	movw	r22, r12
    19b2:	0e 94 30 12 	call	0x2460	; 0x2460 <__divsf3>
    19b6:	9b 01       	movw	r18, r22
    19b8:	ac 01       	movw	r20, r24
    19ba:	60 e0       	ldi	r22, 0x00	; 0
    19bc:	70 e0       	ldi	r23, 0x00	; 0
    19be:	80 e8       	ldi	r24, 0x80	; 128
    19c0:	9f e3       	ldi	r25, 0x3F	; 63
    19c2:	0e 94 be 11 	call	0x237c	; 0x237c <__subsf3>
    19c6:	6b 01       	movw	r12, r22
    19c8:	7c 01       	movw	r14, r24
    19ca:	8d 81       	ldd	r24, Y+5	; 0x05
    19cc:	9e 81       	ldd	r25, Y+6	; 0x06
    19ce:	6f 81       	ldd	r22, Y+7	; 0x07
    19d0:	78 85       	ldd	r23, Y+8	; 0x08
    19d2:	0e 94 85 14 	call	0x290a	; 0x290a <__divmodhi4>
    19d6:	fc 01       	movw	r30, r24
    19d8:	ee 0f       	add	r30, r30
    19da:	ff 1f       	adc	r31, r31
    19dc:	ee 0f       	add	r30, r30
    19de:	ff 1f       	adc	r31, r31
    19e0:	ee 5f       	subi	r30, 0xFE	; 254
    19e2:	fe 4f       	sbci	r31, 0xFE	; 254
    19e4:	80 80       	ld	r8, Z
    19e6:	91 80       	ldd	r9, Z+1	; 0x01
    19e8:	a2 80       	ldd	r10, Z+2	; 0x02
    19ea:	b3 80       	ldd	r11, Z+3	; 0x03
    19ec:	c5 01       	movw	r24, r10
    19ee:	b4 01       	movw	r22, r8
    19f0:	77 27       	eor	r23, r23
    19f2:	88 27       	eor	r24, r24
    19f4:	99 27       	eor	r25, r25
    19f6:	0e 94 d1 12 	call	0x25a2	; 0x25a2 <__floatunsisf>
    19fa:	a7 01       	movw	r20, r14
    19fc:	96 01       	movw	r18, r12
    19fe:	0e 94 88 13 	call	0x2710	; 0x2710 <__mulsf3>
    1a02:	0e 94 a2 12 	call	0x2544	; 0x2544 <__fixunssfsi>
    1a06:	a9 89       	ldd	r26, Y+17	; 0x11
    1a08:	ba 89       	ldd	r27, Y+18	; 0x12
    1a0a:	11 96       	adiw	r26, 0x01	; 1
    1a0c:	6c 93       	st	X, r22
    1a0e:	69 2d       	mov	r22, r9
    1a10:	70 e0       	ldi	r23, 0x00	; 0
    1a12:	80 e0       	ldi	r24, 0x00	; 0
    1a14:	90 e0       	ldi	r25, 0x00	; 0
    1a16:	0e 94 d1 12 	call	0x25a2	; 0x25a2 <__floatunsisf>
    1a1a:	a7 01       	movw	r20, r14
    1a1c:	96 01       	movw	r18, r12
    1a1e:	0e 94 88 13 	call	0x2710	; 0x2710 <__mulsf3>
    1a22:	0e 94 a2 12 	call	0x2544	; 0x2544 <__fixunssfsi>
    1a26:	e9 89       	ldd	r30, Y+17	; 0x11
    1a28:	fa 89       	ldd	r31, Y+18	; 0x12
    1a2a:	62 83       	std	Z+2, r22	; 0x02
    1a2c:	6a 2d       	mov	r22, r10
    1a2e:	70 e0       	ldi	r23, 0x00	; 0
    1a30:	80 e0       	ldi	r24, 0x00	; 0
    1a32:	90 e0       	ldi	r25, 0x00	; 0
    1a34:	0e 94 d1 12 	call	0x25a2	; 0x25a2 <__floatunsisf>
    1a38:	a7 01       	movw	r20, r14
    1a3a:	96 01       	movw	r18, r12
    1a3c:	0e 94 88 13 	call	0x2710	; 0x2710 <__mulsf3>
    1a40:	0e 94 a2 12 	call	0x2544	; 0x2544 <__fixunssfsi>
    1a44:	a9 89       	ldd	r26, Y+17	; 0x11
    1a46:	ba 89       	ldd	r27, Y+18	; 0x12
    1a48:	6c 93       	st	X, r22
    1a4a:	9d 01       	movw	r18, r26
    1a4c:	0f 5f       	subi	r16, 0xFF	; 255
    1a4e:	1f 4f       	sbci	r17, 0xFF	; 255
    1a50:	2c 5f       	subi	r18, 0xFC	; 252
    1a52:	3f 4f       	sbci	r19, 0xFF	; 255
    1a54:	3a 8b       	std	Y+18, r19	; 0x12
    1a56:	29 8b       	std	Y+17, r18	; 0x11
    1a58:	02 15       	cp	r16, r2
    1a5a:	13 05       	cpc	r17, r3
    1a5c:	c4 f5       	brge	.+112    	; 0x1ace <seqParticlesDark+0x1e6>
    1a5e:	b8 01       	movw	r22, r16
    1a60:	01 2e       	mov	r0, r17
    1a62:	00 0c       	add	r0, r0
    1a64:	88 0b       	sbc	r24, r24
    1a66:	99 0b       	sbc	r25, r25
    1a68:	0e 94 d3 12 	call	0x25a6	; 0x25a6 <__floatsisf>
    1a6c:	9b 01       	movw	r18, r22
    1a6e:	ac 01       	movw	r20, r24
    1a70:	69 81       	ldd	r22, Y+1	; 0x01
    1a72:	7a 81       	ldd	r23, Y+2	; 0x02
    1a74:	8b 81       	ldd	r24, Y+3	; 0x03
    1a76:	9c 81       	ldd	r25, Y+4	; 0x04
    1a78:	0e 94 be 11 	call	0x237c	; 0x237c <__subsf3>
    1a7c:	6b 01       	movw	r12, r22
    1a7e:	7c 01       	movw	r14, r24
    1a80:	20 e0       	ldi	r18, 0x00	; 0
    1a82:	30 e0       	ldi	r19, 0x00	; 0
    1a84:	a9 01       	movw	r20, r18
    1a86:	0e 94 2b 12 	call	0x2456	; 0x2456 <__cmpsf2>
    1a8a:	87 fd       	sbrc	r24, 7
    1a8c:	0f c0       	rjmp	.+30     	; 0x1aac <seqParticlesDark+0x1c4>
    1a8e:	a3 01       	movw	r20, r6
    1a90:	92 01       	movw	r18, r4
    1a92:	c7 01       	movw	r24, r14
    1a94:	b6 01       	movw	r22, r12
    1a96:	0e 94 2b 12 	call	0x2456	; 0x2456 <__cmpsf2>
    1a9a:	87 fd       	sbrc	r24, 7
    1a9c:	86 cf       	rjmp	.-244    	; 0x19aa <seqParticlesDark+0xc2>
    1a9e:	e9 89       	ldd	r30, Y+17	; 0x11
    1aa0:	fa 89       	ldd	r31, Y+18	; 0x12
    1aa2:	11 82       	std	Z+1, r1	; 0x01
    1aa4:	12 82       	std	Z+2, r1	; 0x02
    1aa6:	10 82       	st	Z, r1
    1aa8:	9f 01       	movw	r18, r30
    1aaa:	d0 cf       	rjmp	.-96     	; 0x1a4c <seqParticlesDark+0x164>
    1aac:	f7 fa       	bst	r15, 7
    1aae:	f0 94       	com	r15
    1ab0:	f7 f8       	bld	r15, 7
    1ab2:	f0 94       	com	r15
    1ab4:	ec cf       	rjmp	.-40     	; 0x1a8e <seqParticlesDark+0x1a6>
    1ab6:	60 91 e4 03 	lds	r22, 0x03E4	; 0x8003e4 <pos.1985>
    1aba:	70 91 e5 03 	lds	r23, 0x03E5	; 0x8003e5 <pos.1985+0x1>
    1abe:	80 91 e6 03 	lds	r24, 0x03E6	; 0x8003e6 <pos.1985+0x2>
    1ac2:	90 91 e7 03 	lds	r25, 0x03E7	; 0x8003e7 <pos.1985+0x3>
    1ac6:	69 83       	std	Y+1, r22	; 0x01
    1ac8:	7a 83       	std	Y+2, r23	; 0x02
    1aca:	8b 83       	std	Y+3, r24	; 0x03
    1acc:	9c 83       	std	Y+4, r25	; 0x04
    1ace:	6b 85       	ldd	r22, Y+11	; 0x0b
    1ad0:	7c 85       	ldd	r23, Y+12	; 0x0c
    1ad2:	26 16       	cp	r2, r22
    1ad4:	37 06       	cpc	r3, r23
    1ad6:	74 f5       	brge	.+92     	; 0x1b34 <seqParticlesDark+0x24c>
    1ad8:	80 91 e2 03 	lds	r24, 0x03E2	; 0x8003e2 <color_id.1987>
    1adc:	90 91 e3 03 	lds	r25, 0x03E3	; 0x8003e3 <color_id.1987+0x1>
    1ae0:	01 96       	adiw	r24, 0x01	; 1
    1ae2:	60 91 42 01 	lds	r22, 0x0142	; 0x800142 <numColors>
    1ae6:	70 e0       	ldi	r23, 0x00	; 0
    1ae8:	0e 94 85 14 	call	0x290a	; 0x290a <__divmodhi4>
    1aec:	fc 01       	movw	r30, r24
    1aee:	ee 0f       	add	r30, r30
    1af0:	ff 1f       	adc	r31, r31
    1af2:	ee 0f       	add	r30, r30
    1af4:	ff 1f       	adc	r31, r31
    1af6:	ee 5f       	subi	r30, 0xFE	; 254
    1af8:	fe 4f       	sbci	r31, 0xFE	; 254
    1afa:	40 81       	ld	r20, Z
    1afc:	31 81       	ldd	r19, Z+1	; 0x01
    1afe:	22 81       	ldd	r18, Z+2	; 0x02
    1b00:	f1 01       	movw	r30, r2
    1b02:	ee 0f       	add	r30, r30
    1b04:	ff 1f       	adc	r31, r31
    1b06:	ee 0f       	add	r30, r30
    1b08:	ff 1f       	adc	r31, r31
    1b0a:	89 85       	ldd	r24, Y+9	; 0x09
    1b0c:	9a 85       	ldd	r25, Y+10	; 0x0a
    1b0e:	e8 0f       	add	r30, r24
    1b10:	f9 1f       	adc	r31, r25
    1b12:	8b 85       	ldd	r24, Y+11	; 0x0b
    1b14:	9c 85       	ldd	r25, Y+12	; 0x0c
    1b16:	88 0f       	add	r24, r24
    1b18:	99 1f       	adc	r25, r25
    1b1a:	88 0f       	add	r24, r24
    1b1c:	99 1f       	adc	r25, r25
    1b1e:	a9 85       	ldd	r26, Y+9	; 0x09
    1b20:	ba 85       	ldd	r27, Y+10	; 0x0a
    1b22:	8a 0f       	add	r24, r26
    1b24:	9b 1f       	adc	r25, r27
    1b26:	41 83       	std	Z+1, r20	; 0x01
    1b28:	32 83       	std	Z+2, r19	; 0x02
    1b2a:	20 83       	st	Z, r18
    1b2c:	34 96       	adiw	r30, 0x04	; 4
    1b2e:	e8 17       	cp	r30, r24
    1b30:	f9 07       	cpc	r31, r25
    1b32:	c9 f7       	brne	.-14     	; 0x1b26 <seqParticlesDark+0x23e>
    1b34:	29 81       	ldd	r18, Y+1	; 0x01
    1b36:	3a 81       	ldd	r19, Y+2	; 0x02
    1b38:	4b 81       	ldd	r20, Y+3	; 0x03
    1b3a:	5c 81       	ldd	r21, Y+4	; 0x04
    1b3c:	6d 85       	ldd	r22, Y+13	; 0x0d
    1b3e:	7e 85       	ldd	r23, Y+14	; 0x0e
    1b40:	8f 85       	ldd	r24, Y+15	; 0x0f
    1b42:	98 89       	ldd	r25, Y+16	; 0x10
    1b44:	0e 94 bf 11 	call	0x237e	; 0x237e <__addsf3>
    1b48:	6b 01       	movw	r12, r22
    1b4a:	7c 01       	movw	r14, r24
    1b4c:	60 93 e4 03 	sts	0x03E4, r22	; 0x8003e4 <pos.1985>
    1b50:	70 93 e5 03 	sts	0x03E5, r23	; 0x8003e5 <pos.1985+0x1>
    1b54:	80 93 e6 03 	sts	0x03E6, r24	; 0x8003e6 <pos.1985+0x2>
    1b58:	90 93 e7 03 	sts	0x03E7, r25	; 0x8003e7 <pos.1985+0x3>
    1b5c:	b1 01       	movw	r22, r2
    1b5e:	03 2c       	mov	r0, r3
    1b60:	00 0c       	add	r0, r0
    1b62:	88 0b       	sbc	r24, r24
    1b64:	99 0b       	sbc	r25, r25
    1b66:	0e 94 d3 12 	call	0x25a6	; 0x25a6 <__floatsisf>
    1b6a:	9b 01       	movw	r18, r22
    1b6c:	ac 01       	movw	r20, r24
    1b6e:	c7 01       	movw	r24, r14
    1b70:	b6 01       	movw	r22, r12
    1b72:	0e 94 83 13 	call	0x2706	; 0x2706 <__gesf2>
    1b76:	87 fd       	sbrc	r24, 7
    1b78:	32 c0       	rjmp	.+100    	; 0x1bde <seqParticlesDark+0x2f6>
    1b7a:	80 91 df 03 	lds	r24, 0x03DF	; 0x8003df <decremented.1988>
    1b7e:	81 11       	cpse	r24, r1
    1b80:	0a c0       	rjmp	.+20     	; 0x1b96 <seqParticlesDark+0x2ae>
    1b82:	b1 e0       	ldi	r27, 0x01	; 1
    1b84:	2b 1a       	sub	r2, r27
    1b86:	31 08       	sbc	r3, r1
    1b88:	30 92 e1 03 	sts	0x03E1, r3	; 0x8003e1 <length.1986+0x1>
    1b8c:	20 92 e0 03 	sts	0x03E0, r2	; 0x8003e0 <length.1986>
    1b90:	81 e0       	ldi	r24, 0x01	; 1
    1b92:	80 93 df 03 	sts	0x03DF, r24	; 0x8003df <decremented.1988>
    1b96:	b1 01       	movw	r22, r2
    1b98:	03 2c       	mov	r0, r3
    1b9a:	00 0c       	add	r0, r0
    1b9c:	88 0b       	sbc	r24, r24
    1b9e:	99 0b       	sbc	r25, r25
    1ba0:	0e 94 d3 12 	call	0x25a6	; 0x25a6 <__floatsisf>
    1ba4:	a3 01       	movw	r20, r6
    1ba6:	92 01       	movw	r18, r4
    1ba8:	0e 94 bf 11 	call	0x237e	; 0x237e <__addsf3>
    1bac:	9b 01       	movw	r18, r22
    1bae:	ac 01       	movw	r20, r24
    1bb0:	c7 01       	movw	r24, r14
    1bb2:	b6 01       	movw	r22, r12
    1bb4:	0e 94 83 13 	call	0x2706	; 0x2706 <__gesf2>
    1bb8:	87 fd       	sbrc	r24, 7
    1bba:	11 c0       	rjmp	.+34     	; 0x1bde <seqParticlesDark+0x2f6>
    1bbc:	77 fa       	bst	r7, 7
    1bbe:	70 94       	com	r7
    1bc0:	77 f8       	bld	r7, 7
    1bc2:	70 94       	com	r7
    1bc4:	40 92 e4 03 	sts	0x03E4, r4	; 0x8003e4 <pos.1985>
    1bc8:	50 92 e5 03 	sts	0x03E5, r5	; 0x8003e5 <pos.1985+0x1>
    1bcc:	60 92 e6 03 	sts	0x03E6, r6	; 0x8003e6 <pos.1985+0x2>
    1bd0:	70 92 e7 03 	sts	0x03E7, r7	; 0x8003e7 <pos.1985+0x3>
    1bd4:	10 92 df 03 	sts	0x03DF, r1	; 0x8003df <decremented.1988>
    1bd8:	12 14       	cp	r1, r2
    1bda:	13 04       	cpc	r1, r3
    1bdc:	cc f4       	brge	.+50     	; 0x1c10 <seqParticlesDark+0x328>
    1bde:	62 96       	adiw	r28, 0x12	; 18
    1be0:	0f b6       	in	r0, 0x3f	; 63
    1be2:	f8 94       	cli
    1be4:	de bf       	out	0x3e, r29	; 62
    1be6:	0f be       	out	0x3f, r0	; 63
    1be8:	cd bf       	out	0x3d, r28	; 61
    1bea:	df 91       	pop	r29
    1bec:	cf 91       	pop	r28
    1bee:	1f 91       	pop	r17
    1bf0:	0f 91       	pop	r16
    1bf2:	ff 90       	pop	r15
    1bf4:	ef 90       	pop	r14
    1bf6:	df 90       	pop	r13
    1bf8:	cf 90       	pop	r12
    1bfa:	bf 90       	pop	r11
    1bfc:	af 90       	pop	r10
    1bfe:	9f 90       	pop	r9
    1c00:	8f 90       	pop	r8
    1c02:	7f 90       	pop	r7
    1c04:	6f 90       	pop	r6
    1c06:	5f 90       	pop	r5
    1c08:	4f 90       	pop	r4
    1c0a:	3f 90       	pop	r3
    1c0c:	2f 90       	pop	r2
    1c0e:	08 95       	ret
    1c10:	eb 85       	ldd	r30, Y+11	; 0x0b
    1c12:	fc 85       	ldd	r31, Y+12	; 0x0c
    1c14:	f0 93 e1 03 	sts	0x03E1, r31	; 0x8003e1 <length.1986+0x1>
    1c18:	e0 93 e0 03 	sts	0x03E0, r30	; 0x8003e0 <length.1986>
    1c1c:	80 91 e2 03 	lds	r24, 0x03E2	; 0x8003e2 <color_id.1987>
    1c20:	90 91 e3 03 	lds	r25, 0x03E3	; 0x8003e3 <color_id.1987+0x1>
    1c24:	01 96       	adiw	r24, 0x01	; 1
    1c26:	60 91 42 01 	lds	r22, 0x0142	; 0x800142 <numColors>
    1c2a:	70 e0       	ldi	r23, 0x00	; 0
    1c2c:	0e 94 85 14 	call	0x290a	; 0x290a <__divmodhi4>
    1c30:	90 93 e3 03 	sts	0x03E3, r25	; 0x8003e3 <color_id.1987+0x1>
    1c34:	80 93 e2 03 	sts	0x03E2, r24	; 0x8003e2 <color_id.1987>
    1c38:	d2 cf       	rjmp	.-92     	; 0x1bde <seqParticlesDark+0x2f6>

00001c3a <seqRunningParticle>:
    1c3a:	2f 92       	push	r2
    1c3c:	3f 92       	push	r3
    1c3e:	4f 92       	push	r4
    1c40:	5f 92       	push	r5
    1c42:	6f 92       	push	r6
    1c44:	7f 92       	push	r7
    1c46:	8f 92       	push	r8
    1c48:	9f 92       	push	r9
    1c4a:	af 92       	push	r10
    1c4c:	bf 92       	push	r11
    1c4e:	cf 92       	push	r12
    1c50:	df 92       	push	r13
    1c52:	ef 92       	push	r14
    1c54:	ff 92       	push	r15
    1c56:	0f 93       	push	r16
    1c58:	1f 93       	push	r17
    1c5a:	cf 93       	push	r28
    1c5c:	df 93       	push	r29
    1c5e:	cd b7       	in	r28, 0x3d	; 61
    1c60:	de b7       	in	r29, 0x3e	; 62
    1c62:	a6 97       	sbiw	r28, 0x26	; 38
    1c64:	0f b6       	in	r0, 0x3f	; 63
    1c66:	f8 94       	cli
    1c68:	de bf       	out	0x3e, r29	; 62
    1c6a:	0f be       	out	0x3f, r0	; 63
    1c6c:	cd bf       	out	0x3d, r28	; 61
    1c6e:	8c 01       	movw	r16, r24
    1c70:	1b 01       	movw	r2, r22
    1c72:	60 91 45 01 	lds	r22, 0x0145	; 0x800145 <seqSpeed>
    1c76:	70 e0       	ldi	r23, 0x00	; 0
    1c78:	80 e0       	ldi	r24, 0x00	; 0
    1c7a:	90 e0       	ldi	r25, 0x00	; 0
    1c7c:	0e 94 d3 12 	call	0x25a6	; 0x25a6 <__floatsisf>
    1c80:	20 e0       	ldi	r18, 0x00	; 0
    1c82:	30 e0       	ldi	r19, 0x00	; 0
    1c84:	4a e7       	ldi	r20, 0x7A	; 122
    1c86:	54 e4       	ldi	r21, 0x44	; 68
    1c88:	0e 94 30 12 	call	0x2460	; 0x2460 <__divsf3>
    1c8c:	69 a3       	std	Y+33, r22	; 0x21
    1c8e:	7a a3       	std	Y+34, r23	; 0x22
    1c90:	8b a3       	std	Y+35, r24	; 0x23
    1c92:	9c a3       	std	Y+36, r25	; 0x24
    1c94:	60 91 43 01 	lds	r22, 0x0143	; 0x800143 <seqSize>
    1c98:	20 91 44 01 	lds	r18, 0x0144	; 0x800144 <seqSoftness>
    1c9c:	29 83       	std	Y+1, r18	; 0x01
    1c9e:	40 90 e8 03 	lds	r4, 0x03E8	; 0x8003e8 <pos.2005>
    1ca2:	50 90 e9 03 	lds	r5, 0x03E9	; 0x8003e9 <pos.2005+0x1>
    1ca6:	60 90 ea 03 	lds	r6, 0x03EA	; 0x8003ea <pos.2005+0x2>
    1caa:	70 90 eb 03 	lds	r7, 0x03EB	; 0x8003eb <pos.2005+0x3>
    1cae:	12 14       	cp	r1, r2
    1cb0:	13 04       	cpc	r1, r3
    1cb2:	0c f0       	brlt	.+2      	; 0x1cb6 <seqRunningParticle+0x7c>
    1cb4:	01 c1       	rjmp	.+514    	; 0x1eb8 <seqRunningParticle+0x27e>
    1cb6:	a6 2f       	mov	r26, r22
    1cb8:	b0 e0       	ldi	r27, 0x00	; 0
    1cba:	be 8b       	std	Y+22, r27	; 0x16
    1cbc:	ad 8b       	std	Y+21, r26	; 0x15
    1cbe:	bd 01       	movw	r22, r26
    1cc0:	bb 0f       	add	r27, r27
    1cc2:	88 0b       	sbc	r24, r24
    1cc4:	99 0b       	sbc	r25, r25
    1cc6:	0e 94 d3 12 	call	0x25a6	; 0x25a6 <__floatsisf>
    1cca:	4b 01       	movw	r8, r22
    1ccc:	5c 01       	movw	r10, r24
    1cce:	c0 90 02 01 	lds	r12, 0x0102	; 0x800102 <colors>
    1cd2:	d0 90 03 01 	lds	r13, 0x0103	; 0x800103 <colors+0x1>
    1cd6:	e0 90 04 01 	lds	r14, 0x0104	; 0x800104 <colors+0x2>
    1cda:	f0 90 05 01 	lds	r15, 0x0105	; 0x800105 <colors+0x3>
    1cde:	c7 01       	movw	r24, r14
    1ce0:	b6 01       	movw	r22, r12
    1ce2:	77 27       	eor	r23, r23
    1ce4:	88 27       	eor	r24, r24
    1ce6:	99 27       	eor	r25, r25
    1ce8:	0e 94 d1 12 	call	0x25a2	; 0x25a2 <__floatunsisf>
    1cec:	6d 83       	std	Y+5, r22	; 0x05
    1cee:	7e 83       	std	Y+6, r23	; 0x06
    1cf0:	8f 83       	std	Y+7, r24	; 0x07
    1cf2:	98 87       	std	Y+8, r25	; 0x08
    1cf4:	6d 2d       	mov	r22, r13
    1cf6:	70 e0       	ldi	r23, 0x00	; 0
    1cf8:	80 e0       	ldi	r24, 0x00	; 0
    1cfa:	90 e0       	ldi	r25, 0x00	; 0
    1cfc:	0e 94 d1 12 	call	0x25a2	; 0x25a2 <__floatunsisf>
    1d00:	69 87       	std	Y+9, r22	; 0x09
    1d02:	7a 87       	std	Y+10, r23	; 0x0a
    1d04:	8b 87       	std	Y+11, r24	; 0x0b
    1d06:	9c 87       	std	Y+12, r25	; 0x0c
    1d08:	6e 2d       	mov	r22, r14
    1d0a:	70 e0       	ldi	r23, 0x00	; 0
    1d0c:	80 e0       	ldi	r24, 0x00	; 0
    1d0e:	90 e0       	ldi	r25, 0x00	; 0
    1d10:	0e 94 d1 12 	call	0x25a2	; 0x25a2 <__floatunsisf>
    1d14:	6d 87       	std	Y+13, r22	; 0x0d
    1d16:	7e 87       	std	Y+14, r23	; 0x0e
    1d18:	8f 87       	std	Y+15, r24	; 0x0f
    1d1a:	98 8b       	std	Y+16, r25	; 0x10
    1d1c:	f9 81       	ldd	r31, Y+1	; 0x01
    1d1e:	ef 2f       	mov	r30, r31
    1d20:	f0 e0       	ldi	r31, 0x00	; 0
    1d22:	f8 8f       	std	Y+24, r31	; 0x18
    1d24:	ef 8b       	std	Y+23, r30	; 0x17
    1d26:	09 8b       	std	Y+17, r16	; 0x11
    1d28:	1a 8b       	std	Y+18, r17	; 0x12
    1d2a:	00 e0       	ldi	r16, 0x00	; 0
    1d2c:	10 e0       	ldi	r17, 0x00	; 0
    1d2e:	8d 89       	ldd	r24, Y+21	; 0x15
    1d30:	9e 89       	ldd	r25, Y+22	; 0x16
    1d32:	8e 0f       	add	r24, r30
    1d34:	9f 1f       	adc	r25, r31
    1d36:	9c 01       	movw	r18, r24
    1d38:	99 0f       	add	r25, r25
    1d3a:	44 0b       	sbc	r20, r20
    1d3c:	55 0b       	sbc	r21, r21
    1d3e:	29 8f       	std	Y+25, r18	; 0x19
    1d40:	3a 8f       	std	Y+26, r19	; 0x1a
    1d42:	4b 8f       	std	Y+27, r20	; 0x1b
    1d44:	5c 8f       	std	Y+28, r21	; 0x1c
    1d46:	99 81       	ldd	r25, Y+1	; 0x01
    1d48:	89 2f       	mov	r24, r25
    1d4a:	90 e0       	ldi	r25, 0x00	; 0
    1d4c:	a0 e0       	ldi	r26, 0x00	; 0
    1d4e:	b0 e0       	ldi	r27, 0x00	; 0
    1d50:	8d 8f       	std	Y+29, r24	; 0x1d
    1d52:	9e 8f       	std	Y+30, r25	; 0x1e
    1d54:	af 8f       	std	Y+31, r26	; 0x1f
    1d56:	b8 a3       	std	Y+32, r27	; 0x20
    1d58:	a9 89       	ldd	r26, Y+17	; 0x11
    1d5a:	ba 89       	ldd	r27, Y+18	; 0x12
    1d5c:	be a3       	std	Y+38, r27	; 0x26
    1d5e:	ad a3       	std	Y+37, r26	; 0x25
    1d60:	72 c0       	rjmp	.+228    	; 0x1e46 <seqRunningParticle+0x20c>
    1d62:	b8 01       	movw	r22, r16
    1d64:	62 0d       	add	r22, r2
    1d66:	73 1d       	adc	r23, r3
    1d68:	07 2e       	mov	r0, r23
    1d6a:	00 0c       	add	r0, r0
    1d6c:	88 0b       	sbc	r24, r24
    1d6e:	99 0b       	sbc	r25, r25
    1d70:	0e 94 d3 12 	call	0x25a6	; 0x25a6 <__floatsisf>
    1d74:	a3 01       	movw	r20, r6
    1d76:	92 01       	movw	r18, r4
    1d78:	0e 94 be 11 	call	0x237c	; 0x237c <__subsf3>
    1d7c:	69 83       	std	Y+1, r22	; 0x01
    1d7e:	7a 83       	std	Y+2, r23	; 0x02
    1d80:	8b 83       	std	Y+3, r24	; 0x03
    1d82:	9c 83       	std	Y+4, r25	; 0x04
    1d84:	a5 01       	movw	r20, r10
    1d86:	94 01       	movw	r18, r8
    1d88:	0e 94 2b 12 	call	0x2456	; 0x2456 <__cmpsf2>
    1d8c:	87 fd       	sbrc	r24, 7
    1d8e:	77 c0       	rjmp	.+238    	; 0x1e7e <seqRunningParticle+0x244>
    1d90:	69 8d       	ldd	r22, Y+25	; 0x19
    1d92:	7a 8d       	ldd	r23, Y+26	; 0x1a
    1d94:	8b 8d       	ldd	r24, Y+27	; 0x1b
    1d96:	9c 8d       	ldd	r25, Y+28	; 0x1c
    1d98:	0e 94 d3 12 	call	0x25a6	; 0x25a6 <__floatsisf>
    1d9c:	69 8b       	std	Y+17, r22	; 0x11
    1d9e:	7a 8b       	std	Y+18, r23	; 0x12
    1da0:	8b 8b       	std	Y+19, r24	; 0x13
    1da2:	9c 8b       	std	Y+20, r25	; 0x14
    1da4:	9b 01       	movw	r18, r22
    1da6:	ac 01       	movw	r20, r24
    1da8:	c7 01       	movw	r24, r14
    1daa:	b6 01       	movw	r22, r12
    1dac:	0e 94 2b 12 	call	0x2456	; 0x2456 <__cmpsf2>
    1db0:	87 ff       	sbrs	r24, 7
    1db2:	71 c0       	rjmp	.+226    	; 0x1e96 <seqRunningParticle+0x25c>
    1db4:	a7 01       	movw	r20, r14
    1db6:	96 01       	movw	r18, r12
    1db8:	69 89       	ldd	r22, Y+17	; 0x11
    1dba:	7a 89       	ldd	r23, Y+18	; 0x12
    1dbc:	8b 89       	ldd	r24, Y+19	; 0x13
    1dbe:	9c 89       	ldd	r25, Y+20	; 0x14
    1dc0:	0e 94 be 11 	call	0x237c	; 0x237c <__subsf3>
    1dc4:	6b 01       	movw	r12, r22
    1dc6:	7c 01       	movw	r14, r24
    1dc8:	6d 8d       	ldd	r22, Y+29	; 0x1d
    1dca:	7e 8d       	ldd	r23, Y+30	; 0x1e
    1dcc:	8f 8d       	ldd	r24, Y+31	; 0x1f
    1dce:	98 a1       	ldd	r25, Y+32	; 0x20
    1dd0:	0e 94 d1 12 	call	0x25a2	; 0x25a2 <__floatunsisf>
    1dd4:	9b 01       	movw	r18, r22
    1dd6:	ac 01       	movw	r20, r24
    1dd8:	c7 01       	movw	r24, r14
    1dda:	b6 01       	movw	r22, r12
    1ddc:	0e 94 30 12 	call	0x2460	; 0x2460 <__divsf3>
    1de0:	6b 01       	movw	r12, r22
    1de2:	7c 01       	movw	r14, r24
    1de4:	2d 81       	ldd	r18, Y+5	; 0x05
    1de6:	3e 81       	ldd	r19, Y+6	; 0x06
    1de8:	4f 81       	ldd	r20, Y+7	; 0x07
    1dea:	58 85       	ldd	r21, Y+8	; 0x08
    1dec:	c7 01       	movw	r24, r14
    1dee:	b6 01       	movw	r22, r12
    1df0:	0e 94 88 13 	call	0x2710	; 0x2710 <__mulsf3>
    1df4:	0e 94 a2 12 	call	0x2544	; 0x2544 <__fixunssfsi>
    1df8:	ed a1       	ldd	r30, Y+37	; 0x25
    1dfa:	fe a1       	ldd	r31, Y+38	; 0x26
    1dfc:	61 83       	std	Z+1, r22	; 0x01
    1dfe:	29 85       	ldd	r18, Y+9	; 0x09
    1e00:	3a 85       	ldd	r19, Y+10	; 0x0a
    1e02:	4b 85       	ldd	r20, Y+11	; 0x0b
    1e04:	5c 85       	ldd	r21, Y+12	; 0x0c
    1e06:	c7 01       	movw	r24, r14
    1e08:	b6 01       	movw	r22, r12
    1e0a:	0e 94 88 13 	call	0x2710	; 0x2710 <__mulsf3>
    1e0e:	0e 94 a2 12 	call	0x2544	; 0x2544 <__fixunssfsi>
    1e12:	ad a1       	ldd	r26, Y+37	; 0x25
    1e14:	be a1       	ldd	r27, Y+38	; 0x26
    1e16:	12 96       	adiw	r26, 0x02	; 2
    1e18:	6c 93       	st	X, r22
    1e1a:	2d 85       	ldd	r18, Y+13	; 0x0d
    1e1c:	3e 85       	ldd	r19, Y+14	; 0x0e
    1e1e:	4f 85       	ldd	r20, Y+15	; 0x0f
    1e20:	58 89       	ldd	r21, Y+16	; 0x10
    1e22:	c7 01       	movw	r24, r14
    1e24:	b6 01       	movw	r22, r12
    1e26:	0e 94 88 13 	call	0x2710	; 0x2710 <__mulsf3>
    1e2a:	0e 94 a2 12 	call	0x2544	; 0x2544 <__fixunssfsi>
    1e2e:	ed a1       	ldd	r30, Y+37	; 0x25
    1e30:	fe a1       	ldd	r31, Y+38	; 0x26
    1e32:	60 83       	st	Z, r22
    1e34:	0f 5f       	subi	r16, 0xFF	; 255
    1e36:	1f 4f       	sbci	r17, 0xFF	; 255
    1e38:	34 96       	adiw	r30, 0x04	; 4
    1e3a:	fe a3       	std	Y+38, r31	; 0x26
    1e3c:	ed a3       	std	Y+37, r30	; 0x25
    1e3e:	20 16       	cp	r2, r16
    1e40:	31 06       	cpc	r3, r17
    1e42:	09 f4       	brne	.+2      	; 0x1e46 <seqRunningParticle+0x20c>
    1e44:	41 c0       	rjmp	.+130    	; 0x1ec8 <seqRunningParticle+0x28e>
    1e46:	b8 01       	movw	r22, r16
    1e48:	01 2e       	mov	r0, r17
    1e4a:	00 0c       	add	r0, r0
    1e4c:	88 0b       	sbc	r24, r24
    1e4e:	99 0b       	sbc	r25, r25
    1e50:	0e 94 d3 12 	call	0x25a6	; 0x25a6 <__floatsisf>
    1e54:	a3 01       	movw	r20, r6
    1e56:	92 01       	movw	r18, r4
    1e58:	0e 94 be 11 	call	0x237c	; 0x237c <__subsf3>
    1e5c:	6b 01       	movw	r12, r22
    1e5e:	7c 01       	movw	r14, r24
    1e60:	20 e0       	ldi	r18, 0x00	; 0
    1e62:	30 e0       	ldi	r19, 0x00	; 0
    1e64:	a9 01       	movw	r20, r18
    1e66:	0e 94 2b 12 	call	0x2456	; 0x2456 <__cmpsf2>
    1e6a:	87 fd       	sbrc	r24, 7
    1e6c:	0f c0       	rjmp	.+30     	; 0x1e8c <seqRunningParticle+0x252>
    1e6e:	a5 01       	movw	r20, r10
    1e70:	94 01       	movw	r18, r8
    1e72:	c7 01       	movw	r24, r14
    1e74:	b6 01       	movw	r22, r12
    1e76:	0e 94 2b 12 	call	0x2456	; 0x2456 <__cmpsf2>
    1e7a:	87 ff       	sbrs	r24, 7
    1e7c:	72 cf       	rjmp	.-284    	; 0x1d62 <seqRunningParticle+0x128>
    1e7e:	c1 2c       	mov	r12, r1
    1e80:	d1 2c       	mov	r13, r1
    1e82:	80 e8       	ldi	r24, 0x80	; 128
    1e84:	e8 2e       	mov	r14, r24
    1e86:	8f e3       	ldi	r24, 0x3F	; 63
    1e88:	f8 2e       	mov	r15, r24
    1e8a:	ac cf       	rjmp	.-168    	; 0x1de4 <seqRunningParticle+0x1aa>
    1e8c:	f7 fa       	bst	r15, 7
    1e8e:	f0 94       	com	r15
    1e90:	f7 f8       	bld	r15, 7
    1e92:	f0 94       	com	r15
    1e94:	ec cf       	rjmp	.-40     	; 0x1e6e <seqRunningParticle+0x234>
    1e96:	29 89       	ldd	r18, Y+17	; 0x11
    1e98:	3a 89       	ldd	r19, Y+18	; 0x12
    1e9a:	4b 89       	ldd	r20, Y+19	; 0x13
    1e9c:	5c 89       	ldd	r21, Y+20	; 0x14
    1e9e:	69 81       	ldd	r22, Y+1	; 0x01
    1ea0:	7a 81       	ldd	r23, Y+2	; 0x02
    1ea2:	8b 81       	ldd	r24, Y+3	; 0x03
    1ea4:	9c 81       	ldd	r25, Y+4	; 0x04
    1ea6:	0e 94 2b 12 	call	0x2456	; 0x2456 <__cmpsf2>
    1eaa:	87 ff       	sbrs	r24, 7
    1eac:	5a c0       	rjmp	.+180    	; 0x1f62 <seqRunningParticle+0x328>
    1eae:	29 81       	ldd	r18, Y+1	; 0x01
    1eb0:	3a 81       	ldd	r19, Y+2	; 0x02
    1eb2:	4b 81       	ldd	r20, Y+3	; 0x03
    1eb4:	5c 81       	ldd	r21, Y+4	; 0x04
    1eb6:	80 cf       	rjmp	.-256    	; 0x1db8 <seqRunningParticle+0x17e>
    1eb8:	46 2f       	mov	r20, r22
    1eba:	50 e0       	ldi	r21, 0x00	; 0
    1ebc:	5e 8b       	std	Y+22, r21	; 0x16
    1ebe:	4d 8b       	std	Y+21, r20	; 0x15
    1ec0:	82 2f       	mov	r24, r18
    1ec2:	90 e0       	ldi	r25, 0x00	; 0
    1ec4:	98 8f       	std	Y+24, r25	; 0x18
    1ec6:	8f 8b       	std	Y+23, r24	; 0x17
    1ec8:	a3 01       	movw	r20, r6
    1eca:	92 01       	movw	r18, r4
    1ecc:	69 a1       	ldd	r22, Y+33	; 0x21
    1ece:	7a a1       	ldd	r23, Y+34	; 0x22
    1ed0:	8b a1       	ldd	r24, Y+35	; 0x23
    1ed2:	9c a1       	ldd	r25, Y+36	; 0x24
    1ed4:	0e 94 bf 11 	call	0x237e	; 0x237e <__addsf3>
    1ed8:	6b 01       	movw	r12, r22
    1eda:	7c 01       	movw	r14, r24
    1edc:	6d 89       	ldd	r22, Y+21	; 0x15
    1ede:	7e 89       	ldd	r23, Y+22	; 0x16
    1ee0:	62 0d       	add	r22, r2
    1ee2:	73 1d       	adc	r23, r3
    1ee4:	2f 89       	ldd	r18, Y+23	; 0x17
    1ee6:	38 8d       	ldd	r19, Y+24	; 0x18
    1ee8:	62 0f       	add	r22, r18
    1eea:	73 1f       	adc	r23, r19
    1eec:	07 2e       	mov	r0, r23
    1eee:	00 0c       	add	r0, r0
    1ef0:	88 0b       	sbc	r24, r24
    1ef2:	99 0b       	sbc	r25, r25
    1ef4:	0e 94 d3 12 	call	0x25a6	; 0x25a6 <__floatsisf>
    1ef8:	9b 01       	movw	r18, r22
    1efa:	ac 01       	movw	r20, r24
    1efc:	c7 01       	movw	r24, r14
    1efe:	b6 01       	movw	r22, r12
    1f00:	0e 94 83 13 	call	0x2706	; 0x2706 <__gesf2>
    1f04:	87 fd       	sbrc	r24, 7
    1f06:	31 c0       	rjmp	.+98     	; 0x1f6a <seqRunningParticle+0x330>
    1f08:	6d 89       	ldd	r22, Y+21	; 0x15
    1f0a:	7e 89       	ldd	r23, Y+22	; 0x16
    1f0c:	4f 89       	ldd	r20, Y+23	; 0x17
    1f0e:	58 8d       	ldd	r21, Y+24	; 0x18
    1f10:	64 0f       	add	r22, r20
    1f12:	75 1f       	adc	r23, r21
    1f14:	07 2e       	mov	r0, r23
    1f16:	00 0c       	add	r0, r0
    1f18:	88 0b       	sbc	r24, r24
    1f1a:	99 0b       	sbc	r25, r25
    1f1c:	0e 94 d3 12 	call	0x25a6	; 0x25a6 <__floatsisf>
    1f20:	60 93 e8 03 	sts	0x03E8, r22	; 0x8003e8 <pos.2005>
    1f24:	70 93 e9 03 	sts	0x03E9, r23	; 0x8003e9 <pos.2005+0x1>
    1f28:	80 93 ea 03 	sts	0x03EA, r24	; 0x8003ea <pos.2005+0x2>
    1f2c:	90 93 eb 03 	sts	0x03EB, r25	; 0x8003eb <pos.2005+0x3>
    1f30:	a6 96       	adiw	r28, 0x26	; 38
    1f32:	0f b6       	in	r0, 0x3f	; 63
    1f34:	f8 94       	cli
    1f36:	de bf       	out	0x3e, r29	; 62
    1f38:	0f be       	out	0x3f, r0	; 63
    1f3a:	cd bf       	out	0x3d, r28	; 61
    1f3c:	df 91       	pop	r29
    1f3e:	cf 91       	pop	r28
    1f40:	1f 91       	pop	r17
    1f42:	0f 91       	pop	r16
    1f44:	ff 90       	pop	r15
    1f46:	ef 90       	pop	r14
    1f48:	df 90       	pop	r13
    1f4a:	cf 90       	pop	r12
    1f4c:	bf 90       	pop	r11
    1f4e:	af 90       	pop	r10
    1f50:	9f 90       	pop	r9
    1f52:	8f 90       	pop	r8
    1f54:	7f 90       	pop	r7
    1f56:	6f 90       	pop	r6
    1f58:	5f 90       	pop	r5
    1f5a:	4f 90       	pop	r4
    1f5c:	3f 90       	pop	r3
    1f5e:	2f 90       	pop	r2
    1f60:	08 95       	ret
    1f62:	c1 2c       	mov	r12, r1
    1f64:	d1 2c       	mov	r13, r1
    1f66:	76 01       	movw	r14, r12
    1f68:	3d cf       	rjmp	.-390    	; 0x1de4 <seqRunningParticle+0x1aa>
    1f6a:	c0 92 e8 03 	sts	0x03E8, r12	; 0x8003e8 <pos.2005>
    1f6e:	d0 92 e9 03 	sts	0x03E9, r13	; 0x8003e9 <pos.2005+0x1>
    1f72:	e0 92 ea 03 	sts	0x03EA, r14	; 0x8003ea <pos.2005+0x2>
    1f76:	f0 92 eb 03 	sts	0x03EB, r15	; 0x8003eb <pos.2005+0x3>
    1f7a:	da cf       	rjmp	.-76     	; 0x1f30 <seqRunningParticle+0x2f6>

00001f7c <seqRunning2>:
    1f7c:	2f 92       	push	r2
    1f7e:	3f 92       	push	r3
    1f80:	4f 92       	push	r4
    1f82:	5f 92       	push	r5
    1f84:	6f 92       	push	r6
    1f86:	7f 92       	push	r7
    1f88:	8f 92       	push	r8
    1f8a:	9f 92       	push	r9
    1f8c:	af 92       	push	r10
    1f8e:	bf 92       	push	r11
    1f90:	cf 92       	push	r12
    1f92:	df 92       	push	r13
    1f94:	ef 92       	push	r14
    1f96:	ff 92       	push	r15
    1f98:	1f 93       	push	r17
    1f9a:	cf 93       	push	r28
    1f9c:	df 93       	push	r29
    1f9e:	cd b7       	in	r28, 0x3d	; 61
    1fa0:	de b7       	in	r29, 0x3e	; 62
    1fa2:	a8 97       	sbiw	r28, 0x28	; 40
    1fa4:	0f b6       	in	r0, 0x3f	; 63
    1fa6:	f8 94       	cli
    1fa8:	de bf       	out	0x3e, r29	; 62
    1faa:	0f be       	out	0x3f, r0	; 63
    1fac:	cd bf       	out	0x3d, r28	; 61
    1fae:	1c 01       	movw	r2, r24
    1fb0:	7a 83       	std	Y+2, r23	; 0x02
    1fb2:	69 83       	std	Y+1, r22	; 0x01
    1fb4:	60 91 45 01 	lds	r22, 0x0145	; 0x800145 <seqSpeed>
    1fb8:	70 e0       	ldi	r23, 0x00	; 0
    1fba:	80 e0       	ldi	r24, 0x00	; 0
    1fbc:	90 e0       	ldi	r25, 0x00	; 0
    1fbe:	0e 94 d3 12 	call	0x25a6	; 0x25a6 <__floatsisf>
    1fc2:	20 e0       	ldi	r18, 0x00	; 0
    1fc4:	30 e0       	ldi	r19, 0x00	; 0
    1fc6:	4a ef       	ldi	r20, 0xFA	; 250
    1fc8:	53 e4       	ldi	r21, 0x43	; 67
    1fca:	0e 94 30 12 	call	0x2460	; 0x2460 <__divsf3>
    1fce:	6b a3       	std	Y+35, r22	; 0x23
    1fd0:	7c a3       	std	Y+36, r23	; 0x24
    1fd2:	8d a3       	std	Y+37, r24	; 0x25
    1fd4:	9e a3       	std	Y+38, r25	; 0x26
    1fd6:	60 91 43 01 	lds	r22, 0x0143	; 0x800143 <seqSize>
    1fda:	70 e0       	ldi	r23, 0x00	; 0
    1fdc:	80 e0       	ldi	r24, 0x00	; 0
    1fde:	90 e0       	ldi	r25, 0x00	; 0
    1fe0:	0e 94 d1 12 	call	0x25a2	; 0x25a2 <__floatunsisf>
    1fe4:	9b 01       	movw	r18, r22
    1fe6:	ac 01       	movw	r20, r24
    1fe8:	60 e0       	ldi	r22, 0x00	; 0
    1fea:	70 e0       	ldi	r23, 0x00	; 0
    1fec:	80 e8       	ldi	r24, 0x80	; 128
    1fee:	9f e3       	ldi	r25, 0x3F	; 63
    1ff0:	0e 94 30 12 	call	0x2460	; 0x2460 <__divsf3>
    1ff4:	6f 83       	std	Y+7, r22	; 0x07
    1ff6:	78 87       	std	Y+8, r23	; 0x08
    1ff8:	89 87       	std	Y+9, r24	; 0x09
    1ffa:	9a 87       	std	Y+10, r25	; 0x0a
    1ffc:	29 81       	ldd	r18, Y+1	; 0x01
    1ffe:	3a 81       	ldd	r19, Y+2	; 0x02
    2000:	80 91 d2 03 	lds	r24, 0x03D2	; 0x8003d2 <pos.1948>
    2004:	90 91 d3 03 	lds	r25, 0x03D3	; 0x8003d3 <pos.1948+0x1>
    2008:	a0 91 d4 03 	lds	r26, 0x03D4	; 0x8003d4 <pos.1948+0x2>
    200c:	b0 91 d5 03 	lds	r27, 0x03D5	; 0x8003d5 <pos.1948+0x3>
    2010:	8b 83       	std	Y+3, r24	; 0x03
    2012:	9c 83       	std	Y+4, r25	; 0x04
    2014:	ad 83       	std	Y+5, r26	; 0x05
    2016:	be 83       	std	Y+6, r27	; 0x06
    2018:	12 16       	cp	r1, r18
    201a:	13 06       	cpc	r1, r19
    201c:	0c f0       	brlt	.+2      	; 0x2020 <seqRunning2+0xa4>
    201e:	e1 c0       	rjmp	.+450    	; 0x21e2 <seqRunning2+0x266>
    2020:	60 91 02 01 	lds	r22, 0x0102	; 0x800102 <colors>
    2024:	70 e0       	ldi	r23, 0x00	; 0
    2026:	80 e0       	ldi	r24, 0x00	; 0
    2028:	90 e0       	ldi	r25, 0x00	; 0
    202a:	0e 94 d3 12 	call	0x25a6	; 0x25a6 <__floatsisf>
    202e:	6b 87       	std	Y+11, r22	; 0x0b
    2030:	7c 87       	std	Y+12, r23	; 0x0c
    2032:	8d 87       	std	Y+13, r24	; 0x0d
    2034:	9e 87       	std	Y+14, r25	; 0x0e
    2036:	60 91 06 01 	lds	r22, 0x0106	; 0x800106 <colors+0x4>
    203a:	70 e0       	ldi	r23, 0x00	; 0
    203c:	80 e0       	ldi	r24, 0x00	; 0
    203e:	90 e0       	ldi	r25, 0x00	; 0
    2040:	0e 94 d3 12 	call	0x25a6	; 0x25a6 <__floatsisf>
    2044:	6f 87       	std	Y+15, r22	; 0x0f
    2046:	78 8b       	std	Y+16, r23	; 0x10
    2048:	89 8b       	std	Y+17, r24	; 0x11
    204a:	9a 8b       	std	Y+18, r25	; 0x12
    204c:	60 91 03 01 	lds	r22, 0x0103	; 0x800103 <colors+0x1>
    2050:	70 e0       	ldi	r23, 0x00	; 0
    2052:	80 e0       	ldi	r24, 0x00	; 0
    2054:	90 e0       	ldi	r25, 0x00	; 0
    2056:	0e 94 d3 12 	call	0x25a6	; 0x25a6 <__floatsisf>
    205a:	6b 8b       	std	Y+19, r22	; 0x13
    205c:	7c 8b       	std	Y+20, r23	; 0x14
    205e:	8d 8b       	std	Y+21, r24	; 0x15
    2060:	9e 8b       	std	Y+22, r25	; 0x16
    2062:	60 91 07 01 	lds	r22, 0x0107	; 0x800107 <colors+0x5>
    2066:	70 e0       	ldi	r23, 0x00	; 0
    2068:	80 e0       	ldi	r24, 0x00	; 0
    206a:	90 e0       	ldi	r25, 0x00	; 0
    206c:	0e 94 d3 12 	call	0x25a6	; 0x25a6 <__floatsisf>
    2070:	6f 8b       	std	Y+23, r22	; 0x17
    2072:	78 8f       	std	Y+24, r23	; 0x18
    2074:	89 8f       	std	Y+25, r24	; 0x19
    2076:	9a 8f       	std	Y+26, r25	; 0x1a
    2078:	60 91 04 01 	lds	r22, 0x0104	; 0x800104 <colors+0x2>
    207c:	70 e0       	ldi	r23, 0x00	; 0
    207e:	80 e0       	ldi	r24, 0x00	; 0
    2080:	90 e0       	ldi	r25, 0x00	; 0
    2082:	0e 94 d3 12 	call	0x25a6	; 0x25a6 <__floatsisf>
    2086:	6b 8f       	std	Y+27, r22	; 0x1b
    2088:	7c 8f       	std	Y+28, r23	; 0x1c
    208a:	8d 8f       	std	Y+29, r24	; 0x1d
    208c:	9e 8f       	std	Y+30, r25	; 0x1e
    208e:	60 91 08 01 	lds	r22, 0x0108	; 0x800108 <colors+0x6>
    2092:	70 e0       	ldi	r23, 0x00	; 0
    2094:	80 e0       	ldi	r24, 0x00	; 0
    2096:	90 e0       	ldi	r25, 0x00	; 0
    2098:	0e 94 d3 12 	call	0x25a6	; 0x25a6 <__floatsisf>
    209c:	6f 8f       	std	Y+31, r22	; 0x1f
    209e:	78 a3       	std	Y+32, r23	; 0x20
    20a0:	89 a3       	std	Y+33, r24	; 0x21
    20a2:	9a a3       	std	Y+34, r25	; 0x22
    20a4:	60 e0       	ldi	r22, 0x00	; 0
    20a6:	70 e0       	ldi	r23, 0x00	; 0
    20a8:	10 e0       	ldi	r17, 0x00	; 0
    20aa:	18 a6       	std	Y+40, r1	; 0x28
    20ac:	1f a2       	std	Y+39, r1	; 0x27
    20ae:	07 2e       	mov	r0, r23
    20b0:	00 0c       	add	r0, r0
    20b2:	88 0b       	sbc	r24, r24
    20b4:	99 0b       	sbc	r25, r25
    20b6:	0e 94 d3 12 	call	0x25a6	; 0x25a6 <__floatsisf>
    20ba:	2f 81       	ldd	r18, Y+7	; 0x07
    20bc:	38 85       	ldd	r19, Y+8	; 0x08
    20be:	49 85       	ldd	r20, Y+9	; 0x09
    20c0:	5a 85       	ldd	r21, Y+10	; 0x0a
    20c2:	0e 94 88 13 	call	0x2710	; 0x2710 <__mulsf3>
    20c6:	2b 81       	ldd	r18, Y+3	; 0x03
    20c8:	3c 81       	ldd	r19, Y+4	; 0x04
    20ca:	4d 81       	ldd	r20, Y+5	; 0x05
    20cc:	5e 81       	ldd	r21, Y+6	; 0x06
    20ce:	0e 94 bf 11 	call	0x237e	; 0x237e <__addsf3>
    20d2:	0e 94 f5 13 	call	0x27ea	; 0x27ea <sin>
    20d6:	20 e0       	ldi	r18, 0x00	; 0
    20d8:	30 e0       	ldi	r19, 0x00	; 0
    20da:	40 e8       	ldi	r20, 0x80	; 128
    20dc:	5f e3       	ldi	r21, 0x3F	; 63
    20de:	0e 94 bf 11 	call	0x237e	; 0x237e <__addsf3>
    20e2:	20 e0       	ldi	r18, 0x00	; 0
    20e4:	30 e0       	ldi	r19, 0x00	; 0
    20e6:	40 e0       	ldi	r20, 0x00	; 0
    20e8:	5f e3       	ldi	r21, 0x3F	; 63
    20ea:	0e 94 88 13 	call	0x2710	; 0x2710 <__mulsf3>
    20ee:	6b 01       	movw	r12, r22
    20f0:	7c 01       	movw	r14, r24
    20f2:	9b 01       	movw	r18, r22
    20f4:	ac 01       	movw	r20, r24
    20f6:	60 e0       	ldi	r22, 0x00	; 0
    20f8:	70 e0       	ldi	r23, 0x00	; 0
    20fa:	80 e8       	ldi	r24, 0x80	; 128
    20fc:	9f e3       	ldi	r25, 0x3F	; 63
    20fe:	0e 94 be 11 	call	0x237c	; 0x237c <__subsf3>
    2102:	4b 01       	movw	r8, r22
    2104:	5c 01       	movw	r10, r24
    2106:	af a1       	ldd	r26, Y+39	; 0x27
    2108:	b8 a5       	ldd	r27, Y+40	; 0x28
    210a:	aa 0f       	add	r26, r26
    210c:	bb 1f       	adc	r27, r27
    210e:	aa 0f       	add	r26, r26
    2110:	bb 1f       	adc	r27, r27
    2112:	a2 0d       	add	r26, r2
    2114:	b3 1d       	adc	r27, r3
    2116:	b8 a7       	std	Y+40, r27	; 0x28
    2118:	af a3       	std	Y+39, r26	; 0x27
    211a:	2b 85       	ldd	r18, Y+11	; 0x0b
    211c:	3c 85       	ldd	r19, Y+12	; 0x0c
    211e:	4d 85       	ldd	r20, Y+13	; 0x0d
    2120:	5e 85       	ldd	r21, Y+14	; 0x0e
    2122:	c7 01       	movw	r24, r14
    2124:	b6 01       	movw	r22, r12
    2126:	0e 94 88 13 	call	0x2710	; 0x2710 <__mulsf3>
    212a:	2b 01       	movw	r4, r22
    212c:	3c 01       	movw	r6, r24
    212e:	2f 85       	ldd	r18, Y+15	; 0x0f
    2130:	38 89       	ldd	r19, Y+16	; 0x10
    2132:	49 89       	ldd	r20, Y+17	; 0x11
    2134:	5a 89       	ldd	r21, Y+18	; 0x12
    2136:	c5 01       	movw	r24, r10
    2138:	b4 01       	movw	r22, r8
    213a:	0e 94 88 13 	call	0x2710	; 0x2710 <__mulsf3>
    213e:	9b 01       	movw	r18, r22
    2140:	ac 01       	movw	r20, r24
    2142:	c3 01       	movw	r24, r6
    2144:	b2 01       	movw	r22, r4
    2146:	0e 94 bf 11 	call	0x237e	; 0x237e <__addsf3>
    214a:	0e 94 a2 12 	call	0x2544	; 0x2544 <__fixunssfsi>
    214e:	ef a1       	ldd	r30, Y+39	; 0x27
    2150:	f8 a5       	ldd	r31, Y+40	; 0x28
    2152:	61 83       	std	Z+1, r22	; 0x01
    2154:	2b 89       	ldd	r18, Y+19	; 0x13
    2156:	3c 89       	ldd	r19, Y+20	; 0x14
    2158:	4d 89       	ldd	r20, Y+21	; 0x15
    215a:	5e 89       	ldd	r21, Y+22	; 0x16
    215c:	c7 01       	movw	r24, r14
    215e:	b6 01       	movw	r22, r12
    2160:	0e 94 88 13 	call	0x2710	; 0x2710 <__mulsf3>
    2164:	2b 01       	movw	r4, r22
    2166:	3c 01       	movw	r6, r24
    2168:	2f 89       	ldd	r18, Y+23	; 0x17
    216a:	38 8d       	ldd	r19, Y+24	; 0x18
    216c:	49 8d       	ldd	r20, Y+25	; 0x19
    216e:	5a 8d       	ldd	r21, Y+26	; 0x1a
    2170:	c5 01       	movw	r24, r10
    2172:	b4 01       	movw	r22, r8
    2174:	0e 94 88 13 	call	0x2710	; 0x2710 <__mulsf3>
    2178:	9b 01       	movw	r18, r22
    217a:	ac 01       	movw	r20, r24
    217c:	c3 01       	movw	r24, r6
    217e:	b2 01       	movw	r22, r4
    2180:	0e 94 bf 11 	call	0x237e	; 0x237e <__addsf3>
    2184:	0e 94 a2 12 	call	0x2544	; 0x2544 <__fixunssfsi>
    2188:	af a1       	ldd	r26, Y+39	; 0x27
    218a:	b8 a5       	ldd	r27, Y+40	; 0x28
    218c:	12 96       	adiw	r26, 0x02	; 2
    218e:	6c 93       	st	X, r22
    2190:	2b 8d       	ldd	r18, Y+27	; 0x1b
    2192:	3c 8d       	ldd	r19, Y+28	; 0x1c
    2194:	4d 8d       	ldd	r20, Y+29	; 0x1d
    2196:	5e 8d       	ldd	r21, Y+30	; 0x1e
    2198:	c7 01       	movw	r24, r14
    219a:	b6 01       	movw	r22, r12
    219c:	0e 94 88 13 	call	0x2710	; 0x2710 <__mulsf3>
    21a0:	6b 01       	movw	r12, r22
    21a2:	7c 01       	movw	r14, r24
    21a4:	2f 8d       	ldd	r18, Y+31	; 0x1f
    21a6:	38 a1       	ldd	r19, Y+32	; 0x20
    21a8:	49 a1       	ldd	r20, Y+33	; 0x21
    21aa:	5a a1       	ldd	r21, Y+34	; 0x22
    21ac:	c5 01       	movw	r24, r10
    21ae:	b4 01       	movw	r22, r8
    21b0:	0e 94 88 13 	call	0x2710	; 0x2710 <__mulsf3>
    21b4:	9b 01       	movw	r18, r22
    21b6:	ac 01       	movw	r20, r24
    21b8:	c7 01       	movw	r24, r14
    21ba:	b6 01       	movw	r22, r12
    21bc:	0e 94 bf 11 	call	0x237e	; 0x237e <__addsf3>
    21c0:	0e 94 a2 12 	call	0x2544	; 0x2544 <__fixunssfsi>
    21c4:	ef a1       	ldd	r30, Y+39	; 0x27
    21c6:	f8 a5       	ldd	r31, Y+40	; 0x28
    21c8:	60 83       	st	Z, r22
    21ca:	1f 5f       	subi	r17, 0xFF	; 255
    21cc:	21 2f       	mov	r18, r17
    21ce:	30 e0       	ldi	r19, 0x00	; 0
    21d0:	38 a7       	std	Y+40, r19	; 0x28
    21d2:	2f a3       	std	Y+39, r18	; 0x27
    21d4:	b9 01       	movw	r22, r18
    21d6:	89 81       	ldd	r24, Y+1	; 0x01
    21d8:	9a 81       	ldd	r25, Y+2	; 0x02
    21da:	28 17       	cp	r18, r24
    21dc:	39 07       	cpc	r19, r25
    21de:	0c f4       	brge	.+2      	; 0x21e2 <seqRunning2+0x266>
    21e0:	66 cf       	rjmp	.-308    	; 0x20ae <seqRunning2+0x132>
    21e2:	2b 81       	ldd	r18, Y+3	; 0x03
    21e4:	3c 81       	ldd	r19, Y+4	; 0x04
    21e6:	4d 81       	ldd	r20, Y+5	; 0x05
    21e8:	5e 81       	ldd	r21, Y+6	; 0x06
    21ea:	6b a1       	ldd	r22, Y+35	; 0x23
    21ec:	7c a1       	ldd	r23, Y+36	; 0x24
    21ee:	8d a1       	ldd	r24, Y+37	; 0x25
    21f0:	9e a1       	ldd	r25, Y+38	; 0x26
    21f2:	0e 94 bf 11 	call	0x237e	; 0x237e <__addsf3>
    21f6:	6b 01       	movw	r12, r22
    21f8:	7c 01       	movw	r14, r24
    21fa:	2b ed       	ldi	r18, 0xDB	; 219
    21fc:	3f e0       	ldi	r19, 0x0F	; 15
    21fe:	49 ec       	ldi	r20, 0xC9	; 201
    2200:	50 e4       	ldi	r21, 0x40	; 64
    2202:	0e 94 83 13 	call	0x2706	; 0x2706 <__gesf2>
    2206:	18 16       	cp	r1, r24
    2208:	44 f5       	brge	.+80     	; 0x225a <seqRunning2+0x2de>
    220a:	2b ed       	ldi	r18, 0xDB	; 219
    220c:	3f e0       	ldi	r19, 0x0F	; 15
    220e:	49 ec       	ldi	r20, 0xC9	; 201
    2210:	50 e4       	ldi	r21, 0x40	; 64
    2212:	c7 01       	movw	r24, r14
    2214:	b6 01       	movw	r22, r12
    2216:	0e 94 be 11 	call	0x237c	; 0x237c <__subsf3>
    221a:	60 93 d2 03 	sts	0x03D2, r22	; 0x8003d2 <pos.1948>
    221e:	70 93 d3 03 	sts	0x03D3, r23	; 0x8003d3 <pos.1948+0x1>
    2222:	80 93 d4 03 	sts	0x03D4, r24	; 0x8003d4 <pos.1948+0x2>
    2226:	90 93 d5 03 	sts	0x03D5, r25	; 0x8003d5 <pos.1948+0x3>
    222a:	a8 96       	adiw	r28, 0x28	; 40
    222c:	0f b6       	in	r0, 0x3f	; 63
    222e:	f8 94       	cli
    2230:	de bf       	out	0x3e, r29	; 62
    2232:	0f be       	out	0x3f, r0	; 63
    2234:	cd bf       	out	0x3d, r28	; 61
    2236:	df 91       	pop	r29
    2238:	cf 91       	pop	r28
    223a:	1f 91       	pop	r17
    223c:	ff 90       	pop	r15
    223e:	ef 90       	pop	r14
    2240:	df 90       	pop	r13
    2242:	cf 90       	pop	r12
    2244:	bf 90       	pop	r11
    2246:	af 90       	pop	r10
    2248:	9f 90       	pop	r9
    224a:	8f 90       	pop	r8
    224c:	7f 90       	pop	r7
    224e:	6f 90       	pop	r6
    2250:	5f 90       	pop	r5
    2252:	4f 90       	pop	r4
    2254:	3f 90       	pop	r3
    2256:	2f 90       	pop	r2
    2258:	08 95       	ret
    225a:	c0 92 d2 03 	sts	0x03D2, r12	; 0x8003d2 <pos.1948>
    225e:	d0 92 d3 03 	sts	0x03D3, r13	; 0x8003d3 <pos.1948+0x1>
    2262:	e0 92 d4 03 	sts	0x03D4, r14	; 0x8003d4 <pos.1948+0x2>
    2266:	f0 92 d5 03 	sts	0x03D5, r15	; 0x8003d5 <pos.1948+0x3>
    226a:	df cf       	rjmp	.-66     	; 0x222a <seqRunning2+0x2ae>

0000226c <seqSetFunction>:
    226c:	80 93 01 01 	sts	0x0101, r24	; 0x800101 <seqType>
    2270:	08 95       	ret

00002272 <seqSetSpeed>:
    2272:	85 36       	cpi	r24, 0x65	; 101
    2274:	18 f4       	brcc	.+6      	; 0x227c <seqSetSpeed+0xa>
    2276:	80 93 45 01 	sts	0x0145, r24	; 0x800145 <seqSpeed>
    227a:	08 95       	ret
    227c:	84 e6       	ldi	r24, 0x64	; 100
    227e:	80 93 45 01 	sts	0x0145, r24	; 0x800145 <seqSpeed>
    2282:	08 95       	ret

00002284 <seqSetSoftness>:
    2284:	85 36       	cpi	r24, 0x65	; 101
    2286:	18 f4       	brcc	.+6      	; 0x228e <seqSetSoftness+0xa>
    2288:	80 93 44 01 	sts	0x0144, r24	; 0x800144 <seqSoftness>
    228c:	08 95       	ret
    228e:	84 e6       	ldi	r24, 0x64	; 100
    2290:	80 93 44 01 	sts	0x0144, r24	; 0x800144 <seqSoftness>
    2294:	08 95       	ret

00002296 <seqSetSize>:
    2296:	80 93 43 01 	sts	0x0143, r24	; 0x800143 <seqSize>
    229a:	08 95       	ret

0000229c <seqUpdate>:
    229c:	e0 91 01 01 	lds	r30, 0x0101	; 0x800101 <seqType>
    22a0:	f0 e0       	ldi	r31, 0x00	; 0
    22a2:	ee 0f       	add	r30, r30
    22a4:	ff 1f       	adc	r31, r31
    22a6:	ea 5b       	subi	r30, 0xBA	; 186
    22a8:	fe 4f       	sbci	r31, 0xFE	; 254
    22aa:	01 90       	ld	r0, Z+
    22ac:	f0 81       	ld	r31, Z
    22ae:	e0 2d       	mov	r30, r0
    22b0:	09 94       	ijmp

000022b2 <seqSetColorRGB>:
    22b2:	90 91 42 01 	lds	r25, 0x0142	; 0x800142 <numColors>
    22b6:	89 17       	cp	r24, r25
    22b8:	90 f4       	brcc	.+36     	; 0x22de <seqSetColorRGB+0x2c>
    22ba:	e8 2f       	mov	r30, r24
    22bc:	f0 e0       	ldi	r31, 0x00	; 0
    22be:	ee 0f       	add	r30, r30
    22c0:	ff 1f       	adc	r31, r31
    22c2:	ee 0f       	add	r30, r30
    22c4:	ff 1f       	adc	r31, r31
    22c6:	ee 5f       	subi	r30, 0xFE	; 254
    22c8:	fe 4f       	sbci	r31, 0xFE	; 254
    22ca:	86 2f       	mov	r24, r22
    22cc:	90 e0       	ldi	r25, 0x00	; 0
    22ce:	a0 e0       	ldi	r26, 0x00	; 0
    22d0:	b0 e0       	ldi	r27, 0x00	; 0
    22d2:	94 2b       	or	r25, r20
    22d4:	a2 2b       	or	r26, r18
    22d6:	80 83       	st	Z, r24
    22d8:	91 83       	std	Z+1, r25	; 0x01
    22da:	a2 83       	std	Z+2, r26	; 0x02
    22dc:	b3 83       	std	Z+3, r27	; 0x03
    22de:	08 95       	ret

000022e0 <seqSetColorCount>:
    22e0:	81 31       	cpi	r24, 0x11	; 17
    22e2:	10 f4       	brcc	.+4      	; 0x22e8 <seqSetColorCount+0x8>
    22e4:	80 93 42 01 	sts	0x0142, r24	; 0x800142 <numColors>
    22e8:	08 95       	ret

000022ea <wsInit>:
    22ea:	53 9a       	sbi	0x0a, 3	; 10
    22ec:	08 95       	ret

000022ee <wsSend>:
    22ee:	ff 92       	push	r15
    22f0:	0f 93       	push	r16
    22f2:	1f 93       	push	r17
    22f4:	cf 93       	push	r28
    22f6:	df 93       	push	r29
    22f8:	dc 01       	movw	r26, r24
    22fa:	eb 01       	movw	r28, r22
    22fc:	1c 16       	cp	r1, r28
    22fe:	1d 06       	cpc	r1, r29
    2300:	54 f1       	brlt	.+84     	; 0x2356 <wsSend+0x68>
    2302:	35 c0       	rjmp	.+106    	; 0x236e <wsSend+0x80>
    2304:	40 81       	ld	r20, Z
    2306:	51 81       	ldd	r21, Z+1	; 0x01
    2308:	62 81       	ldd	r22, Z+2	; 0x02
    230a:	73 81       	ldd	r23, Z+3	; 0x03
    230c:	02 2e       	mov	r0, r18
    230e:	04 c0       	rjmp	.+8      	; 0x2318 <wsSend+0x2a>
    2310:	76 95       	lsr	r23
    2312:	67 95       	ror	r22
    2314:	57 95       	ror	r21
    2316:	47 95       	ror	r20
    2318:	0a 94       	dec	r0
    231a:	d2 f7       	brpl	.-12     	; 0x2310 <wsSend+0x22>
    231c:	40 ff       	sbrs	r20, 0
    231e:	09 c0       	rjmp	.+18     	; 0x2332 <wsSend+0x44>
    2320:	5b 9a       	sbi	0x0b, 3	; 11
    2322:	81 2f       	mov	r24, r17
    2324:	8a 95       	dec	r24
    2326:	f1 f7       	brne	.-4      	; 0x2324 <wsSend+0x36>
    2328:	5b 98       	cbi	0x0b, 3	; 11
    232a:	80 2f       	mov	r24, r16
    232c:	8a 95       	dec	r24
    232e:	f1 f7       	brne	.-4      	; 0x232c <wsSend+0x3e>
    2330:	08 c0       	rjmp	.+16     	; 0x2342 <wsSend+0x54>
    2332:	5b 9a       	sbi	0x0b, 3	; 11
    2334:	80 2f       	mov	r24, r16
    2336:	8a 95       	dec	r24
    2338:	f1 f7       	brne	.-4      	; 0x2336 <wsSend+0x48>
    233a:	5b 98       	cbi	0x0b, 3	; 11
    233c:	91 2f       	mov	r25, r17
    233e:	9a 95       	dec	r25
    2340:	f1 f7       	brne	.-4      	; 0x233e <wsSend+0x50>
    2342:	21 50       	subi	r18, 0x01	; 1
    2344:	31 09       	sbc	r19, r1
    2346:	f0 f6       	brcc	.-68     	; 0x2304 <wsSend+0x16>
    2348:	f3 94       	inc	r15
    234a:	8f 2d       	mov	r24, r15
    234c:	90 e0       	ldi	r25, 0x00	; 0
    234e:	8c 17       	cp	r24, r28
    2350:	9d 07       	cpc	r25, r29
    2352:	24 f0       	brlt	.+8      	; 0x235c <wsSend+0x6e>
    2354:	0c c0       	rjmp	.+24     	; 0x236e <wsSend+0x80>
    2356:	f1 2c       	mov	r15, r1
    2358:	03 e0       	ldi	r16, 0x03	; 3
    235a:	16 e0       	ldi	r17, 0x06	; 6
    235c:	fd 01       	movw	r30, r26
    235e:	84 e0       	ldi	r24, 0x04	; 4
    2360:	f8 9e       	mul	r15, r24
    2362:	e0 0d       	add	r30, r0
    2364:	f1 1d       	adc	r31, r1
    2366:	11 24       	eor	r1, r1
    2368:	27 e1       	ldi	r18, 0x17	; 23
    236a:	30 e0       	ldi	r19, 0x00	; 0
    236c:	cb cf       	rjmp	.-106    	; 0x2304 <wsSend+0x16>
    236e:	1b b8       	out	0x0b, r1	; 11
    2370:	df 91       	pop	r29
    2372:	cf 91       	pop	r28
    2374:	1f 91       	pop	r17
    2376:	0f 91       	pop	r16
    2378:	ff 90       	pop	r15
    237a:	08 95       	ret

0000237c <__subsf3>:
    237c:	50 58       	subi	r21, 0x80	; 128

0000237e <__addsf3>:
    237e:	bb 27       	eor	r27, r27
    2380:	aa 27       	eor	r26, r26
    2382:	0e 94 d6 11 	call	0x23ac	; 0x23ac <__addsf3x>
    2386:	0c 94 49 13 	jmp	0x2692	; 0x2692 <__fp_round>
    238a:	0e 94 3b 13 	call	0x2676	; 0x2676 <__fp_pscA>
    238e:	38 f0       	brcs	.+14     	; 0x239e <__addsf3+0x20>
    2390:	0e 94 42 13 	call	0x2684	; 0x2684 <__fp_pscB>
    2394:	20 f0       	brcs	.+8      	; 0x239e <__addsf3+0x20>
    2396:	39 f4       	brne	.+14     	; 0x23a6 <__addsf3+0x28>
    2398:	9f 3f       	cpi	r25, 0xFF	; 255
    239a:	19 f4       	brne	.+6      	; 0x23a2 <__addsf3+0x24>
    239c:	26 f4       	brtc	.+8      	; 0x23a6 <__addsf3+0x28>
    239e:	0c 94 38 13 	jmp	0x2670	; 0x2670 <__fp_nan>
    23a2:	0e f4       	brtc	.+2      	; 0x23a6 <__addsf3+0x28>
    23a4:	e0 95       	com	r30
    23a6:	e7 fb       	bst	r30, 7
    23a8:	0c 94 32 13 	jmp	0x2664	; 0x2664 <__fp_inf>

000023ac <__addsf3x>:
    23ac:	e9 2f       	mov	r30, r25
    23ae:	0e 94 5a 13 	call	0x26b4	; 0x26b4 <__fp_split3>
    23b2:	58 f3       	brcs	.-42     	; 0x238a <__addsf3+0xc>
    23b4:	ba 17       	cp	r27, r26
    23b6:	62 07       	cpc	r22, r18
    23b8:	73 07       	cpc	r23, r19
    23ba:	84 07       	cpc	r24, r20
    23bc:	95 07       	cpc	r25, r21
    23be:	20 f0       	brcs	.+8      	; 0x23c8 <__addsf3x+0x1c>
    23c0:	79 f4       	brne	.+30     	; 0x23e0 <__addsf3x+0x34>
    23c2:	a6 f5       	brtc	.+104    	; 0x242c <__addsf3x+0x80>
    23c4:	0c 94 7c 13 	jmp	0x26f8	; 0x26f8 <__fp_zero>
    23c8:	0e f4       	brtc	.+2      	; 0x23cc <__addsf3x+0x20>
    23ca:	e0 95       	com	r30
    23cc:	0b 2e       	mov	r0, r27
    23ce:	ba 2f       	mov	r27, r26
    23d0:	a0 2d       	mov	r26, r0
    23d2:	0b 01       	movw	r0, r22
    23d4:	b9 01       	movw	r22, r18
    23d6:	90 01       	movw	r18, r0
    23d8:	0c 01       	movw	r0, r24
    23da:	ca 01       	movw	r24, r20
    23dc:	a0 01       	movw	r20, r0
    23de:	11 24       	eor	r1, r1
    23e0:	ff 27       	eor	r31, r31
    23e2:	59 1b       	sub	r21, r25
    23e4:	99 f0       	breq	.+38     	; 0x240c <__addsf3x+0x60>
    23e6:	59 3f       	cpi	r21, 0xF9	; 249
    23e8:	50 f4       	brcc	.+20     	; 0x23fe <__addsf3x+0x52>
    23ea:	50 3e       	cpi	r21, 0xE0	; 224
    23ec:	68 f1       	brcs	.+90     	; 0x2448 <__addsf3x+0x9c>
    23ee:	1a 16       	cp	r1, r26
    23f0:	f0 40       	sbci	r31, 0x00	; 0
    23f2:	a2 2f       	mov	r26, r18
    23f4:	23 2f       	mov	r18, r19
    23f6:	34 2f       	mov	r19, r20
    23f8:	44 27       	eor	r20, r20
    23fa:	58 5f       	subi	r21, 0xF8	; 248
    23fc:	f3 cf       	rjmp	.-26     	; 0x23e4 <__addsf3x+0x38>
    23fe:	46 95       	lsr	r20
    2400:	37 95       	ror	r19
    2402:	27 95       	ror	r18
    2404:	a7 95       	ror	r26
    2406:	f0 40       	sbci	r31, 0x00	; 0
    2408:	53 95       	inc	r21
    240a:	c9 f7       	brne	.-14     	; 0x23fe <__addsf3x+0x52>
    240c:	7e f4       	brtc	.+30     	; 0x242c <__addsf3x+0x80>
    240e:	1f 16       	cp	r1, r31
    2410:	ba 0b       	sbc	r27, r26
    2412:	62 0b       	sbc	r22, r18
    2414:	73 0b       	sbc	r23, r19
    2416:	84 0b       	sbc	r24, r20
    2418:	ba f0       	brmi	.+46     	; 0x2448 <__addsf3x+0x9c>
    241a:	91 50       	subi	r25, 0x01	; 1
    241c:	a1 f0       	breq	.+40     	; 0x2446 <__addsf3x+0x9a>
    241e:	ff 0f       	add	r31, r31
    2420:	bb 1f       	adc	r27, r27
    2422:	66 1f       	adc	r22, r22
    2424:	77 1f       	adc	r23, r23
    2426:	88 1f       	adc	r24, r24
    2428:	c2 f7       	brpl	.-16     	; 0x241a <__addsf3x+0x6e>
    242a:	0e c0       	rjmp	.+28     	; 0x2448 <__addsf3x+0x9c>
    242c:	ba 0f       	add	r27, r26
    242e:	62 1f       	adc	r22, r18
    2430:	73 1f       	adc	r23, r19
    2432:	84 1f       	adc	r24, r20
    2434:	48 f4       	brcc	.+18     	; 0x2448 <__addsf3x+0x9c>
    2436:	87 95       	ror	r24
    2438:	77 95       	ror	r23
    243a:	67 95       	ror	r22
    243c:	b7 95       	ror	r27
    243e:	f7 95       	ror	r31
    2440:	9e 3f       	cpi	r25, 0xFE	; 254
    2442:	08 f0       	brcs	.+2      	; 0x2446 <__addsf3x+0x9a>
    2444:	b0 cf       	rjmp	.-160    	; 0x23a6 <__addsf3+0x28>
    2446:	93 95       	inc	r25
    2448:	88 0f       	add	r24, r24
    244a:	08 f0       	brcs	.+2      	; 0x244e <__addsf3x+0xa2>
    244c:	99 27       	eor	r25, r25
    244e:	ee 0f       	add	r30, r30
    2450:	97 95       	ror	r25
    2452:	87 95       	ror	r24
    2454:	08 95       	ret

00002456 <__cmpsf2>:
    2456:	0e 94 0e 13 	call	0x261c	; 0x261c <__fp_cmp>
    245a:	08 f4       	brcc	.+2      	; 0x245e <__cmpsf2+0x8>
    245c:	81 e0       	ldi	r24, 0x01	; 1
    245e:	08 95       	ret

00002460 <__divsf3>:
    2460:	0e 94 44 12 	call	0x2488	; 0x2488 <__divsf3x>
    2464:	0c 94 49 13 	jmp	0x2692	; 0x2692 <__fp_round>
    2468:	0e 94 42 13 	call	0x2684	; 0x2684 <__fp_pscB>
    246c:	58 f0       	brcs	.+22     	; 0x2484 <__divsf3+0x24>
    246e:	0e 94 3b 13 	call	0x2676	; 0x2676 <__fp_pscA>
    2472:	40 f0       	brcs	.+16     	; 0x2484 <__divsf3+0x24>
    2474:	29 f4       	brne	.+10     	; 0x2480 <__divsf3+0x20>
    2476:	5f 3f       	cpi	r21, 0xFF	; 255
    2478:	29 f0       	breq	.+10     	; 0x2484 <__divsf3+0x24>
    247a:	0c 94 32 13 	jmp	0x2664	; 0x2664 <__fp_inf>
    247e:	51 11       	cpse	r21, r1
    2480:	0c 94 7d 13 	jmp	0x26fa	; 0x26fa <__fp_szero>
    2484:	0c 94 38 13 	jmp	0x2670	; 0x2670 <__fp_nan>

00002488 <__divsf3x>:
    2488:	0e 94 5a 13 	call	0x26b4	; 0x26b4 <__fp_split3>
    248c:	68 f3       	brcs	.-38     	; 0x2468 <__divsf3+0x8>

0000248e <__divsf3_pse>:
    248e:	99 23       	and	r25, r25
    2490:	b1 f3       	breq	.-20     	; 0x247e <__divsf3+0x1e>
    2492:	55 23       	and	r21, r21
    2494:	91 f3       	breq	.-28     	; 0x247a <__divsf3+0x1a>
    2496:	95 1b       	sub	r25, r21
    2498:	55 0b       	sbc	r21, r21
    249a:	bb 27       	eor	r27, r27
    249c:	aa 27       	eor	r26, r26
    249e:	62 17       	cp	r22, r18
    24a0:	73 07       	cpc	r23, r19
    24a2:	84 07       	cpc	r24, r20
    24a4:	38 f0       	brcs	.+14     	; 0x24b4 <__divsf3_pse+0x26>
    24a6:	9f 5f       	subi	r25, 0xFF	; 255
    24a8:	5f 4f       	sbci	r21, 0xFF	; 255
    24aa:	22 0f       	add	r18, r18
    24ac:	33 1f       	adc	r19, r19
    24ae:	44 1f       	adc	r20, r20
    24b0:	aa 1f       	adc	r26, r26
    24b2:	a9 f3       	breq	.-22     	; 0x249e <__divsf3_pse+0x10>
    24b4:	35 d0       	rcall	.+106    	; 0x2520 <__divsf3_pse+0x92>
    24b6:	0e 2e       	mov	r0, r30
    24b8:	3a f0       	brmi	.+14     	; 0x24c8 <__divsf3_pse+0x3a>
    24ba:	e0 e8       	ldi	r30, 0x80	; 128
    24bc:	32 d0       	rcall	.+100    	; 0x2522 <__divsf3_pse+0x94>
    24be:	91 50       	subi	r25, 0x01	; 1
    24c0:	50 40       	sbci	r21, 0x00	; 0
    24c2:	e6 95       	lsr	r30
    24c4:	00 1c       	adc	r0, r0
    24c6:	ca f7       	brpl	.-14     	; 0x24ba <__divsf3_pse+0x2c>
    24c8:	2b d0       	rcall	.+86     	; 0x2520 <__divsf3_pse+0x92>
    24ca:	fe 2f       	mov	r31, r30
    24cc:	29 d0       	rcall	.+82     	; 0x2520 <__divsf3_pse+0x92>
    24ce:	66 0f       	add	r22, r22
    24d0:	77 1f       	adc	r23, r23
    24d2:	88 1f       	adc	r24, r24
    24d4:	bb 1f       	adc	r27, r27
    24d6:	26 17       	cp	r18, r22
    24d8:	37 07       	cpc	r19, r23
    24da:	48 07       	cpc	r20, r24
    24dc:	ab 07       	cpc	r26, r27
    24de:	b0 e8       	ldi	r27, 0x80	; 128
    24e0:	09 f0       	breq	.+2      	; 0x24e4 <__divsf3_pse+0x56>
    24e2:	bb 0b       	sbc	r27, r27
    24e4:	80 2d       	mov	r24, r0
    24e6:	bf 01       	movw	r22, r30
    24e8:	ff 27       	eor	r31, r31
    24ea:	93 58       	subi	r25, 0x83	; 131
    24ec:	5f 4f       	sbci	r21, 0xFF	; 255
    24ee:	3a f0       	brmi	.+14     	; 0x24fe <__divsf3_pse+0x70>
    24f0:	9e 3f       	cpi	r25, 0xFE	; 254
    24f2:	51 05       	cpc	r21, r1
    24f4:	78 f0       	brcs	.+30     	; 0x2514 <__divsf3_pse+0x86>
    24f6:	0c 94 32 13 	jmp	0x2664	; 0x2664 <__fp_inf>
    24fa:	0c 94 7d 13 	jmp	0x26fa	; 0x26fa <__fp_szero>
    24fe:	5f 3f       	cpi	r21, 0xFF	; 255
    2500:	e4 f3       	brlt	.-8      	; 0x24fa <__divsf3_pse+0x6c>
    2502:	98 3e       	cpi	r25, 0xE8	; 232
    2504:	d4 f3       	brlt	.-12     	; 0x24fa <__divsf3_pse+0x6c>
    2506:	86 95       	lsr	r24
    2508:	77 95       	ror	r23
    250a:	67 95       	ror	r22
    250c:	b7 95       	ror	r27
    250e:	f7 95       	ror	r31
    2510:	9f 5f       	subi	r25, 0xFF	; 255
    2512:	c9 f7       	brne	.-14     	; 0x2506 <__divsf3_pse+0x78>
    2514:	88 0f       	add	r24, r24
    2516:	91 1d       	adc	r25, r1
    2518:	96 95       	lsr	r25
    251a:	87 95       	ror	r24
    251c:	97 f9       	bld	r25, 7
    251e:	08 95       	ret
    2520:	e1 e0       	ldi	r30, 0x01	; 1
    2522:	66 0f       	add	r22, r22
    2524:	77 1f       	adc	r23, r23
    2526:	88 1f       	adc	r24, r24
    2528:	bb 1f       	adc	r27, r27
    252a:	62 17       	cp	r22, r18
    252c:	73 07       	cpc	r23, r19
    252e:	84 07       	cpc	r24, r20
    2530:	ba 07       	cpc	r27, r26
    2532:	20 f0       	brcs	.+8      	; 0x253c <__divsf3_pse+0xae>
    2534:	62 1b       	sub	r22, r18
    2536:	73 0b       	sbc	r23, r19
    2538:	84 0b       	sbc	r24, r20
    253a:	ba 0b       	sbc	r27, r26
    253c:	ee 1f       	adc	r30, r30
    253e:	88 f7       	brcc	.-30     	; 0x2522 <__divsf3_pse+0x94>
    2540:	e0 95       	com	r30
    2542:	08 95       	ret

00002544 <__fixunssfsi>:
    2544:	0e 94 62 13 	call	0x26c4	; 0x26c4 <__fp_splitA>
    2548:	88 f0       	brcs	.+34     	; 0x256c <__fixunssfsi+0x28>
    254a:	9f 57       	subi	r25, 0x7F	; 127
    254c:	98 f0       	brcs	.+38     	; 0x2574 <__fixunssfsi+0x30>
    254e:	b9 2f       	mov	r27, r25
    2550:	99 27       	eor	r25, r25
    2552:	b7 51       	subi	r27, 0x17	; 23
    2554:	b0 f0       	brcs	.+44     	; 0x2582 <__fixunssfsi+0x3e>
    2556:	e1 f0       	breq	.+56     	; 0x2590 <__fixunssfsi+0x4c>
    2558:	66 0f       	add	r22, r22
    255a:	77 1f       	adc	r23, r23
    255c:	88 1f       	adc	r24, r24
    255e:	99 1f       	adc	r25, r25
    2560:	1a f0       	brmi	.+6      	; 0x2568 <__fixunssfsi+0x24>
    2562:	ba 95       	dec	r27
    2564:	c9 f7       	brne	.-14     	; 0x2558 <__fixunssfsi+0x14>
    2566:	14 c0       	rjmp	.+40     	; 0x2590 <__fixunssfsi+0x4c>
    2568:	b1 30       	cpi	r27, 0x01	; 1
    256a:	91 f0       	breq	.+36     	; 0x2590 <__fixunssfsi+0x4c>
    256c:	0e 94 7c 13 	call	0x26f8	; 0x26f8 <__fp_zero>
    2570:	b1 e0       	ldi	r27, 0x01	; 1
    2572:	08 95       	ret
    2574:	0c 94 7c 13 	jmp	0x26f8	; 0x26f8 <__fp_zero>
    2578:	67 2f       	mov	r22, r23
    257a:	78 2f       	mov	r23, r24
    257c:	88 27       	eor	r24, r24
    257e:	b8 5f       	subi	r27, 0xF8	; 248
    2580:	39 f0       	breq	.+14     	; 0x2590 <__fixunssfsi+0x4c>
    2582:	b9 3f       	cpi	r27, 0xF9	; 249
    2584:	cc f3       	brlt	.-14     	; 0x2578 <__fixunssfsi+0x34>
    2586:	86 95       	lsr	r24
    2588:	77 95       	ror	r23
    258a:	67 95       	ror	r22
    258c:	b3 95       	inc	r27
    258e:	d9 f7       	brne	.-10     	; 0x2586 <__fixunssfsi+0x42>
    2590:	3e f4       	brtc	.+14     	; 0x25a0 <__fixunssfsi+0x5c>
    2592:	90 95       	com	r25
    2594:	80 95       	com	r24
    2596:	70 95       	com	r23
    2598:	61 95       	neg	r22
    259a:	7f 4f       	sbci	r23, 0xFF	; 255
    259c:	8f 4f       	sbci	r24, 0xFF	; 255
    259e:	9f 4f       	sbci	r25, 0xFF	; 255
    25a0:	08 95       	ret

000025a2 <__floatunsisf>:
    25a2:	e8 94       	clt
    25a4:	09 c0       	rjmp	.+18     	; 0x25b8 <__floatsisf+0x12>

000025a6 <__floatsisf>:
    25a6:	97 fb       	bst	r25, 7
    25a8:	3e f4       	brtc	.+14     	; 0x25b8 <__floatsisf+0x12>
    25aa:	90 95       	com	r25
    25ac:	80 95       	com	r24
    25ae:	70 95       	com	r23
    25b0:	61 95       	neg	r22
    25b2:	7f 4f       	sbci	r23, 0xFF	; 255
    25b4:	8f 4f       	sbci	r24, 0xFF	; 255
    25b6:	9f 4f       	sbci	r25, 0xFF	; 255
    25b8:	99 23       	and	r25, r25
    25ba:	a9 f0       	breq	.+42     	; 0x25e6 <__floatsisf+0x40>
    25bc:	f9 2f       	mov	r31, r25
    25be:	96 e9       	ldi	r25, 0x96	; 150
    25c0:	bb 27       	eor	r27, r27
    25c2:	93 95       	inc	r25
    25c4:	f6 95       	lsr	r31
    25c6:	87 95       	ror	r24
    25c8:	77 95       	ror	r23
    25ca:	67 95       	ror	r22
    25cc:	b7 95       	ror	r27
    25ce:	f1 11       	cpse	r31, r1
    25d0:	f8 cf       	rjmp	.-16     	; 0x25c2 <__floatsisf+0x1c>
    25d2:	fa f4       	brpl	.+62     	; 0x2612 <__floatsisf+0x6c>
    25d4:	bb 0f       	add	r27, r27
    25d6:	11 f4       	brne	.+4      	; 0x25dc <__floatsisf+0x36>
    25d8:	60 ff       	sbrs	r22, 0
    25da:	1b c0       	rjmp	.+54     	; 0x2612 <__floatsisf+0x6c>
    25dc:	6f 5f       	subi	r22, 0xFF	; 255
    25de:	7f 4f       	sbci	r23, 0xFF	; 255
    25e0:	8f 4f       	sbci	r24, 0xFF	; 255
    25e2:	9f 4f       	sbci	r25, 0xFF	; 255
    25e4:	16 c0       	rjmp	.+44     	; 0x2612 <__floatsisf+0x6c>
    25e6:	88 23       	and	r24, r24
    25e8:	11 f0       	breq	.+4      	; 0x25ee <__floatsisf+0x48>
    25ea:	96 e9       	ldi	r25, 0x96	; 150
    25ec:	11 c0       	rjmp	.+34     	; 0x2610 <__floatsisf+0x6a>
    25ee:	77 23       	and	r23, r23
    25f0:	21 f0       	breq	.+8      	; 0x25fa <__floatsisf+0x54>
    25f2:	9e e8       	ldi	r25, 0x8E	; 142
    25f4:	87 2f       	mov	r24, r23
    25f6:	76 2f       	mov	r23, r22
    25f8:	05 c0       	rjmp	.+10     	; 0x2604 <__floatsisf+0x5e>
    25fa:	66 23       	and	r22, r22
    25fc:	71 f0       	breq	.+28     	; 0x261a <__floatsisf+0x74>
    25fe:	96 e8       	ldi	r25, 0x86	; 134
    2600:	86 2f       	mov	r24, r22
    2602:	70 e0       	ldi	r23, 0x00	; 0
    2604:	60 e0       	ldi	r22, 0x00	; 0
    2606:	2a f0       	brmi	.+10     	; 0x2612 <__floatsisf+0x6c>
    2608:	9a 95       	dec	r25
    260a:	66 0f       	add	r22, r22
    260c:	77 1f       	adc	r23, r23
    260e:	88 1f       	adc	r24, r24
    2610:	da f7       	brpl	.-10     	; 0x2608 <__floatsisf+0x62>
    2612:	88 0f       	add	r24, r24
    2614:	96 95       	lsr	r25
    2616:	87 95       	ror	r24
    2618:	97 f9       	bld	r25, 7
    261a:	08 95       	ret

0000261c <__fp_cmp>:
    261c:	99 0f       	add	r25, r25
    261e:	00 08       	sbc	r0, r0
    2620:	55 0f       	add	r21, r21
    2622:	aa 0b       	sbc	r26, r26
    2624:	e0 e8       	ldi	r30, 0x80	; 128
    2626:	fe ef       	ldi	r31, 0xFE	; 254
    2628:	16 16       	cp	r1, r22
    262a:	17 06       	cpc	r1, r23
    262c:	e8 07       	cpc	r30, r24
    262e:	f9 07       	cpc	r31, r25
    2630:	c0 f0       	brcs	.+48     	; 0x2662 <__fp_cmp+0x46>
    2632:	12 16       	cp	r1, r18
    2634:	13 06       	cpc	r1, r19
    2636:	e4 07       	cpc	r30, r20
    2638:	f5 07       	cpc	r31, r21
    263a:	98 f0       	brcs	.+38     	; 0x2662 <__fp_cmp+0x46>
    263c:	62 1b       	sub	r22, r18
    263e:	73 0b       	sbc	r23, r19
    2640:	84 0b       	sbc	r24, r20
    2642:	95 0b       	sbc	r25, r21
    2644:	39 f4       	brne	.+14     	; 0x2654 <__fp_cmp+0x38>
    2646:	0a 26       	eor	r0, r26
    2648:	61 f0       	breq	.+24     	; 0x2662 <__fp_cmp+0x46>
    264a:	23 2b       	or	r18, r19
    264c:	24 2b       	or	r18, r20
    264e:	25 2b       	or	r18, r21
    2650:	21 f4       	brne	.+8      	; 0x265a <__fp_cmp+0x3e>
    2652:	08 95       	ret
    2654:	0a 26       	eor	r0, r26
    2656:	09 f4       	brne	.+2      	; 0x265a <__fp_cmp+0x3e>
    2658:	a1 40       	sbci	r26, 0x01	; 1
    265a:	a6 95       	lsr	r26
    265c:	8f ef       	ldi	r24, 0xFF	; 255
    265e:	81 1d       	adc	r24, r1
    2660:	81 1d       	adc	r24, r1
    2662:	08 95       	ret

00002664 <__fp_inf>:
    2664:	97 f9       	bld	r25, 7
    2666:	9f 67       	ori	r25, 0x7F	; 127
    2668:	80 e8       	ldi	r24, 0x80	; 128
    266a:	70 e0       	ldi	r23, 0x00	; 0
    266c:	60 e0       	ldi	r22, 0x00	; 0
    266e:	08 95       	ret

00002670 <__fp_nan>:
    2670:	9f ef       	ldi	r25, 0xFF	; 255
    2672:	80 ec       	ldi	r24, 0xC0	; 192
    2674:	08 95       	ret

00002676 <__fp_pscA>:
    2676:	00 24       	eor	r0, r0
    2678:	0a 94       	dec	r0
    267a:	16 16       	cp	r1, r22
    267c:	17 06       	cpc	r1, r23
    267e:	18 06       	cpc	r1, r24
    2680:	09 06       	cpc	r0, r25
    2682:	08 95       	ret

00002684 <__fp_pscB>:
    2684:	00 24       	eor	r0, r0
    2686:	0a 94       	dec	r0
    2688:	12 16       	cp	r1, r18
    268a:	13 06       	cpc	r1, r19
    268c:	14 06       	cpc	r1, r20
    268e:	05 06       	cpc	r0, r21
    2690:	08 95       	ret

00002692 <__fp_round>:
    2692:	09 2e       	mov	r0, r25
    2694:	03 94       	inc	r0
    2696:	00 0c       	add	r0, r0
    2698:	11 f4       	brne	.+4      	; 0x269e <__fp_round+0xc>
    269a:	88 23       	and	r24, r24
    269c:	52 f0       	brmi	.+20     	; 0x26b2 <__fp_round+0x20>
    269e:	bb 0f       	add	r27, r27
    26a0:	40 f4       	brcc	.+16     	; 0x26b2 <__fp_round+0x20>
    26a2:	bf 2b       	or	r27, r31
    26a4:	11 f4       	brne	.+4      	; 0x26aa <__fp_round+0x18>
    26a6:	60 ff       	sbrs	r22, 0
    26a8:	04 c0       	rjmp	.+8      	; 0x26b2 <__fp_round+0x20>
    26aa:	6f 5f       	subi	r22, 0xFF	; 255
    26ac:	7f 4f       	sbci	r23, 0xFF	; 255
    26ae:	8f 4f       	sbci	r24, 0xFF	; 255
    26b0:	9f 4f       	sbci	r25, 0xFF	; 255
    26b2:	08 95       	ret

000026b4 <__fp_split3>:
    26b4:	57 fd       	sbrc	r21, 7
    26b6:	90 58       	subi	r25, 0x80	; 128
    26b8:	44 0f       	add	r20, r20
    26ba:	55 1f       	adc	r21, r21
    26bc:	59 f0       	breq	.+22     	; 0x26d4 <__fp_splitA+0x10>
    26be:	5f 3f       	cpi	r21, 0xFF	; 255
    26c0:	71 f0       	breq	.+28     	; 0x26de <__fp_splitA+0x1a>
    26c2:	47 95       	ror	r20

000026c4 <__fp_splitA>:
    26c4:	88 0f       	add	r24, r24
    26c6:	97 fb       	bst	r25, 7
    26c8:	99 1f       	adc	r25, r25
    26ca:	61 f0       	breq	.+24     	; 0x26e4 <__fp_splitA+0x20>
    26cc:	9f 3f       	cpi	r25, 0xFF	; 255
    26ce:	79 f0       	breq	.+30     	; 0x26ee <__fp_splitA+0x2a>
    26d0:	87 95       	ror	r24
    26d2:	08 95       	ret
    26d4:	12 16       	cp	r1, r18
    26d6:	13 06       	cpc	r1, r19
    26d8:	14 06       	cpc	r1, r20
    26da:	55 1f       	adc	r21, r21
    26dc:	f2 cf       	rjmp	.-28     	; 0x26c2 <__fp_split3+0xe>
    26de:	46 95       	lsr	r20
    26e0:	f1 df       	rcall	.-30     	; 0x26c4 <__fp_splitA>
    26e2:	08 c0       	rjmp	.+16     	; 0x26f4 <__fp_splitA+0x30>
    26e4:	16 16       	cp	r1, r22
    26e6:	17 06       	cpc	r1, r23
    26e8:	18 06       	cpc	r1, r24
    26ea:	99 1f       	adc	r25, r25
    26ec:	f1 cf       	rjmp	.-30     	; 0x26d0 <__fp_splitA+0xc>
    26ee:	86 95       	lsr	r24
    26f0:	71 05       	cpc	r23, r1
    26f2:	61 05       	cpc	r22, r1
    26f4:	08 94       	sec
    26f6:	08 95       	ret

000026f8 <__fp_zero>:
    26f8:	e8 94       	clt

000026fa <__fp_szero>:
    26fa:	bb 27       	eor	r27, r27
    26fc:	66 27       	eor	r22, r22
    26fe:	77 27       	eor	r23, r23
    2700:	cb 01       	movw	r24, r22
    2702:	97 f9       	bld	r25, 7
    2704:	08 95       	ret

00002706 <__gesf2>:
    2706:	0e 94 0e 13 	call	0x261c	; 0x261c <__fp_cmp>
    270a:	08 f4       	brcc	.+2      	; 0x270e <__gesf2+0x8>
    270c:	8f ef       	ldi	r24, 0xFF	; 255
    270e:	08 95       	ret

00002710 <__mulsf3>:
    2710:	0e 94 9b 13 	call	0x2736	; 0x2736 <__mulsf3x>
    2714:	0c 94 49 13 	jmp	0x2692	; 0x2692 <__fp_round>
    2718:	0e 94 3b 13 	call	0x2676	; 0x2676 <__fp_pscA>
    271c:	38 f0       	brcs	.+14     	; 0x272c <__mulsf3+0x1c>
    271e:	0e 94 42 13 	call	0x2684	; 0x2684 <__fp_pscB>
    2722:	20 f0       	brcs	.+8      	; 0x272c <__mulsf3+0x1c>
    2724:	95 23       	and	r25, r21
    2726:	11 f0       	breq	.+4      	; 0x272c <__mulsf3+0x1c>
    2728:	0c 94 32 13 	jmp	0x2664	; 0x2664 <__fp_inf>
    272c:	0c 94 38 13 	jmp	0x2670	; 0x2670 <__fp_nan>
    2730:	11 24       	eor	r1, r1
    2732:	0c 94 7d 13 	jmp	0x26fa	; 0x26fa <__fp_szero>

00002736 <__mulsf3x>:
    2736:	0e 94 5a 13 	call	0x26b4	; 0x26b4 <__fp_split3>
    273a:	70 f3       	brcs	.-36     	; 0x2718 <__mulsf3+0x8>

0000273c <__mulsf3_pse>:
    273c:	95 9f       	mul	r25, r21
    273e:	c1 f3       	breq	.-16     	; 0x2730 <__mulsf3+0x20>
    2740:	95 0f       	add	r25, r21
    2742:	50 e0       	ldi	r21, 0x00	; 0
    2744:	55 1f       	adc	r21, r21
    2746:	62 9f       	mul	r22, r18
    2748:	f0 01       	movw	r30, r0
    274a:	72 9f       	mul	r23, r18
    274c:	bb 27       	eor	r27, r27
    274e:	f0 0d       	add	r31, r0
    2750:	b1 1d       	adc	r27, r1
    2752:	63 9f       	mul	r22, r19
    2754:	aa 27       	eor	r26, r26
    2756:	f0 0d       	add	r31, r0
    2758:	b1 1d       	adc	r27, r1
    275a:	aa 1f       	adc	r26, r26
    275c:	64 9f       	mul	r22, r20
    275e:	66 27       	eor	r22, r22
    2760:	b0 0d       	add	r27, r0
    2762:	a1 1d       	adc	r26, r1
    2764:	66 1f       	adc	r22, r22
    2766:	82 9f       	mul	r24, r18
    2768:	22 27       	eor	r18, r18
    276a:	b0 0d       	add	r27, r0
    276c:	a1 1d       	adc	r26, r1
    276e:	62 1f       	adc	r22, r18
    2770:	73 9f       	mul	r23, r19
    2772:	b0 0d       	add	r27, r0
    2774:	a1 1d       	adc	r26, r1
    2776:	62 1f       	adc	r22, r18
    2778:	83 9f       	mul	r24, r19
    277a:	a0 0d       	add	r26, r0
    277c:	61 1d       	adc	r22, r1
    277e:	22 1f       	adc	r18, r18
    2780:	74 9f       	mul	r23, r20
    2782:	33 27       	eor	r19, r19
    2784:	a0 0d       	add	r26, r0
    2786:	61 1d       	adc	r22, r1
    2788:	23 1f       	adc	r18, r19
    278a:	84 9f       	mul	r24, r20
    278c:	60 0d       	add	r22, r0
    278e:	21 1d       	adc	r18, r1
    2790:	82 2f       	mov	r24, r18
    2792:	76 2f       	mov	r23, r22
    2794:	6a 2f       	mov	r22, r26
    2796:	11 24       	eor	r1, r1
    2798:	9f 57       	subi	r25, 0x7F	; 127
    279a:	50 40       	sbci	r21, 0x00	; 0
    279c:	9a f0       	brmi	.+38     	; 0x27c4 <__mulsf3_pse+0x88>
    279e:	f1 f0       	breq	.+60     	; 0x27dc <__mulsf3_pse+0xa0>
    27a0:	88 23       	and	r24, r24
    27a2:	4a f0       	brmi	.+18     	; 0x27b6 <__mulsf3_pse+0x7a>
    27a4:	ee 0f       	add	r30, r30
    27a6:	ff 1f       	adc	r31, r31
    27a8:	bb 1f       	adc	r27, r27
    27aa:	66 1f       	adc	r22, r22
    27ac:	77 1f       	adc	r23, r23
    27ae:	88 1f       	adc	r24, r24
    27b0:	91 50       	subi	r25, 0x01	; 1
    27b2:	50 40       	sbci	r21, 0x00	; 0
    27b4:	a9 f7       	brne	.-22     	; 0x27a0 <__mulsf3_pse+0x64>
    27b6:	9e 3f       	cpi	r25, 0xFE	; 254
    27b8:	51 05       	cpc	r21, r1
    27ba:	80 f0       	brcs	.+32     	; 0x27dc <__mulsf3_pse+0xa0>
    27bc:	0c 94 32 13 	jmp	0x2664	; 0x2664 <__fp_inf>
    27c0:	0c 94 7d 13 	jmp	0x26fa	; 0x26fa <__fp_szero>
    27c4:	5f 3f       	cpi	r21, 0xFF	; 255
    27c6:	e4 f3       	brlt	.-8      	; 0x27c0 <__mulsf3_pse+0x84>
    27c8:	98 3e       	cpi	r25, 0xE8	; 232
    27ca:	d4 f3       	brlt	.-12     	; 0x27c0 <__mulsf3_pse+0x84>
    27cc:	86 95       	lsr	r24
    27ce:	77 95       	ror	r23
    27d0:	67 95       	ror	r22
    27d2:	b7 95       	ror	r27
    27d4:	f7 95       	ror	r31
    27d6:	e7 95       	ror	r30
    27d8:	9f 5f       	subi	r25, 0xFF	; 255
    27da:	c1 f7       	brne	.-16     	; 0x27cc <__mulsf3_pse+0x90>
    27dc:	fe 2b       	or	r31, r30
    27de:	88 0f       	add	r24, r24
    27e0:	91 1d       	adc	r25, r1
    27e2:	96 95       	lsr	r25
    27e4:	87 95       	ror	r24
    27e6:	97 f9       	bld	r25, 7
    27e8:	08 95       	ret

000027ea <sin>:
    27ea:	9f 93       	push	r25
    27ec:	0e 94 ff 13 	call	0x27fe	; 0x27fe <__fp_rempio2>
    27f0:	0f 90       	pop	r0
    27f2:	07 fc       	sbrc	r0, 7
    27f4:	ee 5f       	subi	r30, 0xFE	; 254
    27f6:	0c 94 28 14 	jmp	0x2850	; 0x2850 <__fp_sinus>
    27fa:	0c 94 38 13 	jmp	0x2670	; 0x2670 <__fp_nan>

000027fe <__fp_rempio2>:
    27fe:	0e 94 62 13 	call	0x26c4	; 0x26c4 <__fp_splitA>
    2802:	d8 f3       	brcs	.-10     	; 0x27fa <sin+0x10>
    2804:	e8 94       	clt
    2806:	e0 e0       	ldi	r30, 0x00	; 0
    2808:	bb 27       	eor	r27, r27
    280a:	9f 57       	subi	r25, 0x7F	; 127
    280c:	f0 f0       	brcs	.+60     	; 0x284a <__fp_rempio2+0x4c>
    280e:	2a ed       	ldi	r18, 0xDA	; 218
    2810:	3f e0       	ldi	r19, 0x0F	; 15
    2812:	49 ec       	ldi	r20, 0xC9	; 201
    2814:	06 c0       	rjmp	.+12     	; 0x2822 <__fp_rempio2+0x24>
    2816:	ee 0f       	add	r30, r30
    2818:	bb 0f       	add	r27, r27
    281a:	66 1f       	adc	r22, r22
    281c:	77 1f       	adc	r23, r23
    281e:	88 1f       	adc	r24, r24
    2820:	28 f0       	brcs	.+10     	; 0x282c <__fp_rempio2+0x2e>
    2822:	b2 3a       	cpi	r27, 0xA2	; 162
    2824:	62 07       	cpc	r22, r18
    2826:	73 07       	cpc	r23, r19
    2828:	84 07       	cpc	r24, r20
    282a:	28 f0       	brcs	.+10     	; 0x2836 <__fp_rempio2+0x38>
    282c:	b2 5a       	subi	r27, 0xA2	; 162
    282e:	62 0b       	sbc	r22, r18
    2830:	73 0b       	sbc	r23, r19
    2832:	84 0b       	sbc	r24, r20
    2834:	e3 95       	inc	r30
    2836:	9a 95       	dec	r25
    2838:	72 f7       	brpl	.-36     	; 0x2816 <__fp_rempio2+0x18>
    283a:	80 38       	cpi	r24, 0x80	; 128
    283c:	30 f4       	brcc	.+12     	; 0x284a <__fp_rempio2+0x4c>
    283e:	9a 95       	dec	r25
    2840:	bb 0f       	add	r27, r27
    2842:	66 1f       	adc	r22, r22
    2844:	77 1f       	adc	r23, r23
    2846:	88 1f       	adc	r24, r24
    2848:	d2 f7       	brpl	.-12     	; 0x283e <__fp_rempio2+0x40>
    284a:	90 48       	sbci	r25, 0x80	; 128
    284c:	0c 94 3e 14 	jmp	0x287c	; 0x287c <__fp_mpack_finite>

00002850 <__fp_sinus>:
    2850:	ef 93       	push	r30
    2852:	e0 ff       	sbrs	r30, 0
    2854:	07 c0       	rjmp	.+14     	; 0x2864 <__fp_sinus+0x14>
    2856:	a2 ea       	ldi	r26, 0xA2	; 162
    2858:	2a ed       	ldi	r18, 0xDA	; 218
    285a:	3f e0       	ldi	r19, 0x0F	; 15
    285c:	49 ec       	ldi	r20, 0xC9	; 201
    285e:	5f eb       	ldi	r21, 0xBF	; 191
    2860:	0e 94 d6 11 	call	0x23ac	; 0x23ac <__addsf3x>
    2864:	0e 94 49 13 	call	0x2692	; 0x2692 <__fp_round>
    2868:	0f 90       	pop	r0
    286a:	03 94       	inc	r0
    286c:	01 fc       	sbrc	r0, 1
    286e:	90 58       	subi	r25, 0x80	; 128
    2870:	e6 e7       	ldi	r30, 0x76	; 118
    2872:	f0 e0       	ldi	r31, 0x00	; 0
    2874:	0c 94 4a 14 	jmp	0x2894	; 0x2894 <__fp_powsodd>

00002878 <__fp_mpack>:
    2878:	9f 3f       	cpi	r25, 0xFF	; 255
    287a:	31 f0       	breq	.+12     	; 0x2888 <__fp_mpack_finite+0xc>

0000287c <__fp_mpack_finite>:
    287c:	91 50       	subi	r25, 0x01	; 1
    287e:	20 f4       	brcc	.+8      	; 0x2888 <__fp_mpack_finite+0xc>
    2880:	87 95       	ror	r24
    2882:	77 95       	ror	r23
    2884:	67 95       	ror	r22
    2886:	b7 95       	ror	r27
    2888:	88 0f       	add	r24, r24
    288a:	91 1d       	adc	r25, r1
    288c:	96 95       	lsr	r25
    288e:	87 95       	ror	r24
    2890:	97 f9       	bld	r25, 7
    2892:	08 95       	ret

00002894 <__fp_powsodd>:
    2894:	9f 93       	push	r25
    2896:	8f 93       	push	r24
    2898:	7f 93       	push	r23
    289a:	6f 93       	push	r22
    289c:	ff 93       	push	r31
    289e:	ef 93       	push	r30
    28a0:	9b 01       	movw	r18, r22
    28a2:	ac 01       	movw	r20, r24
    28a4:	0e 94 88 13 	call	0x2710	; 0x2710 <__mulsf3>
    28a8:	ef 91       	pop	r30
    28aa:	ff 91       	pop	r31
    28ac:	0e 94 5e 14 	call	0x28bc	; 0x28bc <__fp_powser>
    28b0:	2f 91       	pop	r18
    28b2:	3f 91       	pop	r19
    28b4:	4f 91       	pop	r20
    28b6:	5f 91       	pop	r21
    28b8:	0c 94 88 13 	jmp	0x2710	; 0x2710 <__mulsf3>

000028bc <__fp_powser>:
    28bc:	df 93       	push	r29
    28be:	cf 93       	push	r28
    28c0:	1f 93       	push	r17
    28c2:	0f 93       	push	r16
    28c4:	ff 92       	push	r15
    28c6:	ef 92       	push	r14
    28c8:	df 92       	push	r13
    28ca:	7b 01       	movw	r14, r22
    28cc:	8c 01       	movw	r16, r24
    28ce:	68 94       	set
    28d0:	06 c0       	rjmp	.+12     	; 0x28de <__fp_powser+0x22>
    28d2:	da 2e       	mov	r13, r26
    28d4:	ef 01       	movw	r28, r30
    28d6:	0e 94 9b 13 	call	0x2736	; 0x2736 <__mulsf3x>
    28da:	fe 01       	movw	r30, r28
    28dc:	e8 94       	clt
    28de:	a5 91       	lpm	r26, Z+
    28e0:	25 91       	lpm	r18, Z+
    28e2:	35 91       	lpm	r19, Z+
    28e4:	45 91       	lpm	r20, Z+
    28e6:	55 91       	lpm	r21, Z+
    28e8:	a6 f3       	brts	.-24     	; 0x28d2 <__fp_powser+0x16>
    28ea:	ef 01       	movw	r28, r30
    28ec:	0e 94 d6 11 	call	0x23ac	; 0x23ac <__addsf3x>
    28f0:	fe 01       	movw	r30, r28
    28f2:	97 01       	movw	r18, r14
    28f4:	a8 01       	movw	r20, r16
    28f6:	da 94       	dec	r13
    28f8:	69 f7       	brne	.-38     	; 0x28d4 <__fp_powser+0x18>
    28fa:	df 90       	pop	r13
    28fc:	ef 90       	pop	r14
    28fe:	ff 90       	pop	r15
    2900:	0f 91       	pop	r16
    2902:	1f 91       	pop	r17
    2904:	cf 91       	pop	r28
    2906:	df 91       	pop	r29
    2908:	08 95       	ret

0000290a <__divmodhi4>:
    290a:	97 fb       	bst	r25, 7
    290c:	07 2e       	mov	r0, r23
    290e:	16 f4       	brtc	.+4      	; 0x2914 <__divmodhi4+0xa>
    2910:	00 94       	com	r0
    2912:	07 d0       	rcall	.+14     	; 0x2922 <__divmodhi4_neg1>
    2914:	77 fd       	sbrc	r23, 7
    2916:	09 d0       	rcall	.+18     	; 0x292a <__divmodhi4_neg2>
    2918:	0e 94 be 14 	call	0x297c	; 0x297c <__udivmodhi4>
    291c:	07 fc       	sbrc	r0, 7
    291e:	05 d0       	rcall	.+10     	; 0x292a <__divmodhi4_neg2>
    2920:	3e f4       	brtc	.+14     	; 0x2930 <__divmodhi4_exit>

00002922 <__divmodhi4_neg1>:
    2922:	90 95       	com	r25
    2924:	81 95       	neg	r24
    2926:	9f 4f       	sbci	r25, 0xFF	; 255
    2928:	08 95       	ret

0000292a <__divmodhi4_neg2>:
    292a:	70 95       	com	r23
    292c:	61 95       	neg	r22
    292e:	7f 4f       	sbci	r23, 0xFF	; 255

00002930 <__divmodhi4_exit>:
    2930:	08 95       	ret

00002932 <__divmodsi4>:
    2932:	05 2e       	mov	r0, r21
    2934:	97 fb       	bst	r25, 7
    2936:	1e f4       	brtc	.+6      	; 0x293e <__divmodsi4+0xc>
    2938:	00 94       	com	r0
    293a:	0e 94 b0 14 	call	0x2960	; 0x2960 <__negsi2>
    293e:	57 fd       	sbrc	r21, 7
    2940:	07 d0       	rcall	.+14     	; 0x2950 <__divmodsi4_neg2>
    2942:	0e 94 d2 14 	call	0x29a4	; 0x29a4 <__udivmodsi4>
    2946:	07 fc       	sbrc	r0, 7
    2948:	03 d0       	rcall	.+6      	; 0x2950 <__divmodsi4_neg2>
    294a:	4e f4       	brtc	.+18     	; 0x295e <__divmodsi4_exit>
    294c:	0c 94 b0 14 	jmp	0x2960	; 0x2960 <__negsi2>

00002950 <__divmodsi4_neg2>:
    2950:	50 95       	com	r21
    2952:	40 95       	com	r20
    2954:	30 95       	com	r19
    2956:	21 95       	neg	r18
    2958:	3f 4f       	sbci	r19, 0xFF	; 255
    295a:	4f 4f       	sbci	r20, 0xFF	; 255
    295c:	5f 4f       	sbci	r21, 0xFF	; 255

0000295e <__divmodsi4_exit>:
    295e:	08 95       	ret

00002960 <__negsi2>:
    2960:	90 95       	com	r25
    2962:	80 95       	com	r24
    2964:	70 95       	com	r23
    2966:	61 95       	neg	r22
    2968:	7f 4f       	sbci	r23, 0xFF	; 255
    296a:	8f 4f       	sbci	r24, 0xFF	; 255
    296c:	9f 4f       	sbci	r25, 0xFF	; 255
    296e:	08 95       	ret

00002970 <__tablejump2__>:
    2970:	ee 0f       	add	r30, r30
    2972:	ff 1f       	adc	r31, r31
    2974:	05 90       	lpm	r0, Z+
    2976:	f4 91       	lpm	r31, Z
    2978:	e0 2d       	mov	r30, r0
    297a:	09 94       	ijmp

0000297c <__udivmodhi4>:
    297c:	aa 1b       	sub	r26, r26
    297e:	bb 1b       	sub	r27, r27
    2980:	51 e1       	ldi	r21, 0x11	; 17
    2982:	07 c0       	rjmp	.+14     	; 0x2992 <__udivmodhi4_ep>

00002984 <__udivmodhi4_loop>:
    2984:	aa 1f       	adc	r26, r26
    2986:	bb 1f       	adc	r27, r27
    2988:	a6 17       	cp	r26, r22
    298a:	b7 07       	cpc	r27, r23
    298c:	10 f0       	brcs	.+4      	; 0x2992 <__udivmodhi4_ep>
    298e:	a6 1b       	sub	r26, r22
    2990:	b7 0b       	sbc	r27, r23

00002992 <__udivmodhi4_ep>:
    2992:	88 1f       	adc	r24, r24
    2994:	99 1f       	adc	r25, r25
    2996:	5a 95       	dec	r21
    2998:	a9 f7       	brne	.-22     	; 0x2984 <__udivmodhi4_loop>
    299a:	80 95       	com	r24
    299c:	90 95       	com	r25
    299e:	bc 01       	movw	r22, r24
    29a0:	cd 01       	movw	r24, r26
    29a2:	08 95       	ret

000029a4 <__udivmodsi4>:
    29a4:	a1 e2       	ldi	r26, 0x21	; 33
    29a6:	1a 2e       	mov	r1, r26
    29a8:	aa 1b       	sub	r26, r26
    29aa:	bb 1b       	sub	r27, r27
    29ac:	fd 01       	movw	r30, r26
    29ae:	0d c0       	rjmp	.+26     	; 0x29ca <__udivmodsi4_ep>

000029b0 <__udivmodsi4_loop>:
    29b0:	aa 1f       	adc	r26, r26
    29b2:	bb 1f       	adc	r27, r27
    29b4:	ee 1f       	adc	r30, r30
    29b6:	ff 1f       	adc	r31, r31
    29b8:	a2 17       	cp	r26, r18
    29ba:	b3 07       	cpc	r27, r19
    29bc:	e4 07       	cpc	r30, r20
    29be:	f5 07       	cpc	r31, r21
    29c0:	20 f0       	brcs	.+8      	; 0x29ca <__udivmodsi4_ep>
    29c2:	a2 1b       	sub	r26, r18
    29c4:	b3 0b       	sbc	r27, r19
    29c6:	e4 0b       	sbc	r30, r20
    29c8:	f5 0b       	sbc	r31, r21

000029ca <__udivmodsi4_ep>:
    29ca:	66 1f       	adc	r22, r22
    29cc:	77 1f       	adc	r23, r23
    29ce:	88 1f       	adc	r24, r24
    29d0:	99 1f       	adc	r25, r25
    29d2:	1a 94       	dec	r1
    29d4:	69 f7       	brne	.-38     	; 0x29b0 <__udivmodsi4_loop>
    29d6:	60 95       	com	r22
    29d8:	70 95       	com	r23
    29da:	80 95       	com	r24
    29dc:	90 95       	com	r25
    29de:	9b 01       	movw	r18, r22
    29e0:	ac 01       	movw	r20, r24
    29e2:	bd 01       	movw	r22, r26
    29e4:	cf 01       	movw	r24, r30
    29e6:	08 95       	ret

000029e8 <eeprom_read_byte>:
    29e8:	f9 99       	sbic	0x1f, 1	; 31
    29ea:	fe cf       	rjmp	.-4      	; 0x29e8 <eeprom_read_byte>
    29ec:	92 bd       	out	0x22, r25	; 34
    29ee:	81 bd       	out	0x21, r24	; 33
    29f0:	f8 9a       	sbi	0x1f, 0	; 31
    29f2:	99 27       	eor	r25, r25
    29f4:	80 b5       	in	r24, 0x20	; 32
    29f6:	08 95       	ret

000029f8 <eeprom_write_byte>:
    29f8:	26 2f       	mov	r18, r22

000029fa <eeprom_write_r18>:
    29fa:	f9 99       	sbic	0x1f, 1	; 31
    29fc:	fe cf       	rjmp	.-4      	; 0x29fa <eeprom_write_r18>
    29fe:	1f ba       	out	0x1f, r1	; 31
    2a00:	92 bd       	out	0x22, r25	; 34
    2a02:	81 bd       	out	0x21, r24	; 33
    2a04:	20 bd       	out	0x20, r18	; 32
    2a06:	0f b6       	in	r0, 0x3f	; 63
    2a08:	f8 94       	cli
    2a0a:	fa 9a       	sbi	0x1f, 2	; 31
    2a0c:	f9 9a       	sbi	0x1f, 1	; 31
    2a0e:	0f be       	out	0x3f, r0	; 63
    2a10:	01 96       	adiw	r24, 0x01	; 1
    2a12:	08 95       	ret

00002a14 <_exit>:
    2a14:	f8 94       	cli

00002a16 <__stop_program>:
    2a16:	ff cf       	rjmp	.-2      	; 0x2a16 <__stop_program>
